Certificate:
    Data:
        Version: 3 (0x2)
        Serial Number:
            49:68:db:d2:8e:f8:fe:a8:fd:9d:ed:57:9e:d9:ef:8a
    Signature Algorithm: sha256WithRSAEncryption
        Issuer: CN=Lazarus CA
        Validity
            Not Before: Apr  6 15:21:16 2019 GMT
            Not After : Mar 21 15:21:16 2022 GMT
        Subject: CN=-h
        Subject Public Key Info:
            Public Key Algorithm: rsaEncryption
                Public-Key: (2048 bit)
                Modulus:
                    00:bb:f6:94:47:a9:f4:17:1d:5d:56:dc:b4:01:34:
                    b5:f0:e7:c2:37:5f:32:e4:df:1a:7e:ed:24:e5:f6:
                    0a:db:fe:2a:bd:37:34:81:9e:b5:99:30:b3:9f:d0:
                    20:bf:5e:0b:e8:2a:aa:bd:a7:14:29:66:81:e2:81:
                    25:0a:2c:11:4e:2a:48:ae:f9:f2:87:dc:5a:8e:d7:
                    fd:68:8e:15:f0:33:22:2f:7c:ca:c4:99:f9:62:fc:
                    94:9d:7b:ae:be:c0:6e:eb:af:82:3f:71:92:e6:c5:
                    76:34:ad:ad:c1:59:ae:b4:22:7a:3c:92:04:d9:ad:
                    e4:0e:e7:64:b5:77:7a:0a:28:73:10:52:87:93:81:
                    4a:2d:ce:82:6f:a5:47:6c:59:ee:63:2a:61:f7:37:
                    c8:7c:1e:b9:79:75:7c:0e:10:db:7c:66:2d:24:2d:
                    16:ab:1a:ed:bb:3d:12:15:e3:9a:17:95:31:21:f1:
                    c1:a1:6e:c4:13:ea:2a:86:68:b3:8c:8b:e6:66:6e:
                    82:e1:a6:9d:71:d4:0f:86:d1:f6:45:a2:c4:2f:ff:
                    f7:8e:50:89:a4:58:c8:00:f6:ba:65:b1:cc:73:23:
                    d7:c4:a4:a7:d9:05:2a:c2:ed:bf:73:cf:22:e0:fb:
                    ae:e2:57:72:a6:6a:40:ee:b1:34:f0:e2:2d:df:26:
                    b5:47
                Exponent: 65537 (0x10001)
        X509v3 extensions:
            X509v3 Basic Constraints: 
                CA:FALSE
            X509v3 Subject Key Identifier: 
                39:56:05:19:FB:4C:AA:CE:87:E4:0E:F2:8B:CD:EE:AB:B7:62:23:06
            X509v3 Authority Key Identifier: 
                keyid:19:7F:95:3A:F6:68:62:0C:BF:9D:9E:DE:4E:05:9F:71:90:2B:AA:5A
                DirName:/CN=Lazarus CA
                serial:EA:FF:0E:64:F6:67:9F:E9

            X509v3 Extended Key Usage: 
                TLS Web Client Authentication
            X509v3 Key Usage: 
                Digital Signature
    Signature Algorithm: sha256WithRSAEncryption
         79:c1:5d:88:7f:f9:24:dc:29:91:30:1a:c7:b7:99:bf:aa:a2:
         3f:06:b7:16:d0:1e:1f:c8:99:7b:df:86:cc:d9:07:78:2d:62:
         31:78:1c:6f:fb:c9:c1:89:6b:5f:80:3a:46:15:92:28:cb:0c:
         c4:48:10:b0:e2:31:77:c5:ff:d1:90:91:37:4c:7c:44:5b:e2:
         30:c2:e7:67:c3:02:bf:fc:96:5b:2b:93:61:f0:da:98:d3:ac:
         ca:aa:ad:c7:df:e3:04:6f:49:6f:46:27:81:3c:c1:e2:3b:43:
         84:ea:36:40:b5:c3:38:f6:e4:f7:e5:bf:40:c2:74:fd:0f:0d:
         67:1a:22:39:aa:c3:49:2d:a6:86:1c:98:51:06:be:5b:3a:60:
         82:09:9f:ed:20:81:2e:de:c5:93:1f:31:e2:88:97:6f:12:a9:
         5b:3b:8a:dc:32:b4:06:91:f0:e0:15:4d:c5:a1:ae:08:bb:ea:
         fc:16:cd:96:1a:da:c3:69:2f:33:23:56:87:22:75:54:b3:c0:
         0f:78:3b:ec:59:33:d9:83:cd:a9:33:ce:d6:7b:1c:a4:c0:09:
         c6:8e:1b:b8:e2:03:49:38:5a:72:fe:4f:8d:6b:54:44:36:3b:
         23:9b:71:f2:ff:80:75:04:34:53:0b:4e:07:b1:6d:06:dc:71:
         a8:96:b3:31
-----BEGIN CERTIFICATE-----
MIIDQzCCAiugAwIBAgIQSWjb0o74/qj9ne1XntnvijANBgkqhkiG9w0BAQsFADAV
MRMwEQYDVQQDDApMYXphcnVzIENBMB4XDTE5MDQwNjE1MjExNloXDTIyMDMyMTE1
MjExNlowDTELMAkGA1UEAwwCLWgwggEiMA0GCSqGSIb3DQEBAQUAA4IBDwAwggEK
AoIBAQC79pRHqfQXHV1W3LQBNLXw58I3XzLk3xp+7STl9grb/iq9NzSBnrWZMLOf
0CC/XgvoKqq9pxQpZoHigSUKLBFOKkiu+fKH3FqO1/1ojhXwMyIvfMrEmfli/JSd
e66+wG7rr4I/cZLmxXY0ra3BWa60Ino8kgTZreQO52S1d3oKKHMQUoeTgUotzoJv
pUdsWe5jKmH3N8h8Hrl5dXwOENt8Zi0kLRarGu27PRIV45oXlTEh8cGhbsQT6iqG
aLOMi+ZmboLhpp1x1A+G0fZFosQv//eOUImkWMgA9rplscxzI9fEpKfZBSrC7b9z
zyLg+67iV3KmakDusTTw4i3fJrVHAgMBAAGjgZYwgZMwCQYDVR0TBAIwADAdBgNV
HQ4EFgQUOVYFGftMqs6H5A7yi83uq7diIwYwRQYDVR0jBD4wPIAUGX+VOvZoYgy/
nZ7eTgWfcZArqlqhGaQXMBUxEzARBgNVBAMMCkxhemFydXMgQ0GCCQDq/w5k9mef
6TATBgNVHSUEDDAKBggrBgEFBQcDAjALBgNVHQ8EBAMCB4AwDQYJKoZIhvcNAQEL
BQADggEBAHnBXYh/+STcKZEwGse3mb+qoj8GtxbQHh/ImXvfhszZB3gtYjF4HG/7
ycGJa1+AOkYVkijLDMRIELDiMXfF/9GQkTdMfERb4jDC52fDAr/8llsrk2Hw2pjT
rMqqrcff4wRvSW9GJ4E8weI7Q4TqNkC1wzj25Pflv0DCdP0PDWcaIjmqw0ktpoYc
mFEGvls6YIIJn+0ggS7exZMfMeKIl28SqVs7itwytAaR8OAVTcWhrgi76vwWzZYa
2sNpLzMjVocidVSzwA94O+xZM9mDzakzztZ7HKTACcaOG7jiA0k4WnL+T41rVEQ2
OyObcfL/gHUENFMLTgexbQbccaiWszE=
-----END CERTIFICATE-----
