Certificate:
    Data:
        Version: 3 (0x2)
        Serial Number:
            a1:51:92:fc:94:5a:c8:27:ed:97:67:3c:0c:b9:8b:4a
        Signature Algorithm: sha256WithRSAEncryption
        Issuer: CN=Lazarus CA
        Validity
            Not Before: Jun 24 17:43:15 2019 GMT
            Not After : Jun  8 17:43:15 2022 GMT
        Subject: CN=amishra
        Subject Public Key Info:
            Public Key Algorithm: rsaEncryption
                RSA Public-Key: (2048 bit)
                Modulus:
                    00:a5:b9:ab:f2:63:50:72:fb:37:2b:1a:0c:24:bd:
                    df:ce:e9:6c:0d:8f:5a:c7:ea:94:75:35:fb:5e:59:
                    44:70:fe:6e:31:d5:58:29:1f:a8:50:fe:a9:ed:7e:
                    76:42:4c:ff:0b:47:62:5d:32:c3:57:a0:f9:87:94:
                    1f:d3:36:03:f5:23:a8:42:33:aa:0d:d4:bf:ed:8e:
                    4a:25:18:3c:a6:51:83:57:74:6a:2d:0b:13:46:9b:
                    29:f8:fc:fd:9f:3a:b9:a8:85:20:09:6f:cd:9b:83:
                    e4:7f:0d:24:d6:51:5e:57:25:1a:6b:17:56:1f:86:
                    9e:77:8f:6e:db:6e:91:b6:7b:64:46:5b:54:a1:c4:
                    08:29:5f:a4:9a:96:5e:61:68:46:6f:63:f5:17:29:
                    a9:d3:6f:ea:32:c7:6c:99:a2:fc:5b:fa:60:ad:68:
                    77:02:07:a0:85:c3:d8:d4:81:8f:d0:ae:10:e7:54:
                    d7:f3:a6:52:a5:91:7c:26:2b:a5:8a:61:ab:f0:90:
                    5b:40:10:e3:b9:8d:4e:d9:d2:c3:ba:87:72:ce:87:
                    b2:1a:12:c2:9e:ab:1f:82:93:1d:76:7b:ae:b6:2c:
                    79:a9:90:cc:4d:e5:b7:84:f4:55:d0:e7:fd:70:0d:
                    f4:8e:be:8a:c7:b2:01:0e:11:d8:e7:5e:11:b0:19:
                    a5:9b
                Exponent: 65537 (0x10001)
        X509v3 extensions:
            X509v3 Basic Constraints: 
                CA:FALSE
            X509v3 Subject Key Identifier: 
                8D:F7:0B:E8:A9:98:E3:F1:55:09:3F:FE:4A:3C:B4:73:74:FE:C8:22
            X509v3 Authority Key Identifier: 
                keyid:19:7F:95:3A:F6:68:62:0C:BF:9D:9E:DE:4E:05:9F:71:90:2B:AA:5A
                DirName:/CN=Lazarus CA
                serial:EA:FF:0E:64:F6:67:9F:E9

            X509v3 Extended Key Usage: 
                TLS Web Client Authentication
            X509v3 Key Usage: 
                Digital Signature
    Signature Algorithm: sha256WithRSAEncryption
         3c:79:3a:d9:40:01:ec:e0:40:97:90:7d:fb:c7:b2:8a:ac:fc:
         4a:ed:6c:0d:0c:cb:87:10:40:f7:4a:16:80:db:02:b0:96:46:
         cf:ac:50:a9:e8:40:c9:46:8c:7a:e5:ce:11:19:8a:1d:e6:b3:
         f8:e8:4a:2f:87:fc:cf:c0:65:42:83:0a:71:29:36:93:9e:ca:
         04:9d:60:55:82:6e:28:11:c8:1a:3b:f5:2d:65:86:88:cb:c2:
         19:95:8e:61:4e:e3:b1:7e:0a:a1:21:47:1d:e2:1c:46:ed:50:
         9a:31:fd:f3:ed:87:58:d1:48:97:a0:01:a6:c7:db:51:ab:78:
         cf:a5:fc:0b:10:7c:cf:15:a6:b3:c7:b8:30:8f:0c:43:ea:9e:
         40:87:4a:58:60:64:bf:39:19:a2:18:27:b5:23:cf:ce:77:a7:
         0f:9d:d4:ac:6e:b7:ac:c6:53:ba:c0:d3:3c:3f:2c:c0:db:0f:
         0c:10:d9:39:56:6a:ff:fe:15:b4:a2:11:bb:e0:9e:67:06:c3:
         8c:05:e4:c8:76:fb:da:21:10:ed:bf:05:ea:c2:36:cb:39:1e:
         9c:12:1f:f6:16:18:68:f7:26:f8:6e:22:0c:0d:e6:16:b8:3a:
         a4:3d:74:f0:9a:bd:c7:a2:f8:b7:a7:99:9b:7c:d8:b1:9c:85:
         57:9d:7c:60
-----BEGIN CERTIFICATE-----
MIIDSTCCAjGgAwIBAgIRAKFRkvyUWsgn7ZdnPAy5i0owDQYJKoZIhvcNAQELBQAw
FTETMBEGA1UEAwwKTGF6YXJ1cyBDQTAeFw0xOTA2MjQxNzQzMTVaFw0yMjA2MDgx
NzQzMTVaMBIxEDAOBgNVBAMMB2FtaXNocmEwggEiMA0GCSqGSIb3DQEBAQUAA4IB
DwAwggEKAoIBAQCluavyY1By+zcrGgwkvd/O6WwNj1rH6pR1NfteWURw/m4x1Vgp
H6hQ/qntfnZCTP8LR2JdMsNXoPmHlB/TNgP1I6hCM6oN1L/tjkolGDymUYNXdGot
CxNGmyn4/P2fOrmohSAJb82bg+R/DSTWUV5XJRprF1Yfhp53j27bbpG2e2RGW1Sh
xAgpX6Sall5haEZvY/UXKanTb+oyx2yZovxb+mCtaHcCB6CFw9jUgY/QrhDnVNfz
plKlkXwmK6WKYavwkFtAEOO5jU7Z0sO6h3LOh7IaEsKeqx+Ckx12e662LHmpkMxN
5beE9FXQ5/1wDfSOvorHsgEOEdjnXhGwGaWbAgMBAAGjgZYwgZMwCQYDVR0TBAIw
ADAdBgNVHQ4EFgQUjfcL6KmY4/FVCT/+Sjy0c3T+yCIwRQYDVR0jBD4wPIAUGX+V
OvZoYgy/nZ7eTgWfcZArqlqhGaQXMBUxEzARBgNVBAMMCkxhemFydXMgQ0GCCQDq
/w5k9mef6TATBgNVHSUEDDAKBggrBgEFBQcDAjALBgNVHQ8EBAMCB4AwDQYJKoZI
hvcNAQELBQADggEBADx5OtlAAezgQJeQffvHsoqs/ErtbA0My4cQQPdKFoDbArCW
Rs+sUKnoQMlGjHrlzhEZih3ms/joSi+H/M/AZUKDCnEpNpOeygSdYFWCbigRyBo7
9S1lhojLwhmVjmFO47F+CqEhRx3iHEbtUJox/fPth1jRSJegAabH21GreM+l/AsQ
fM8VprPHuDCPDEPqnkCHSlhgZL85GaIYJ7Ujz853pw+d1Kxut6zGU7rA0zw/LMDb
DwwQ2TlWav/+FbSiEbvgnmcGw4wF5Mh2+9ohEO2/BerCNss5HpwSH/YWGGj3Jvhu
IgwN5ha4OqQ9dPCavcei+LenmZt82LGchVedfGA=
-----END CERTIFICATE-----
