Certificate:
    Data:
        Version: 3 (0x2)
        Serial Number:
            ba:75:d3:71:fd:9d:5c:8a:46:1d:f3:64:84:18:15:e1
    Signature Algorithm: sha256WithRSAEncryption
        Issuer: CN=Lazarus CA
        Validity
            Not Before: Apr 24 19:12:54 2019 GMT
            Not After : Apr  8 19:12:54 2022 GMT
        Subject: CN=FREE-Mw-1556133175
        Subject Public Key Info:
            Public Key Algorithm: rsaEncryption
                Public-Key: (2048 bit)
                Modulus:
                    00:db:1f:42:ef:cd:d1:86:72:b6:00:b0:53:47:0a:
                    50:ec:c0:c4:c5:3c:56:e7:89:88:f1:5e:21:dd:f0:
                    54:2e:b3:cd:c2:72:1c:8b:05:a0:2f:41:5b:df:73:
                    79:94:07:e8:2f:2c:0a:21:87:47:a4:90:61:2b:d7:
                    2f:16:ff:c1:ea:be:d9:95:aa:54:91:53:69:36:44:
                    6b:93:ee:61:d3:16:7b:76:b7:8f:b3:1e:b6:35:58:
                    e0:f7:db:f1:0c:7f:a9:b3:35:7f:b6:35:10:68:3b:
                    a8:39:b3:47:ae:52:b0:c7:6d:09:ae:8d:7c:3d:96:
                    8e:94:d2:d6:67:c3:81:05:43:c5:c4:2a:92:a3:bf:
                    1a:b2:f8:f5:09:f5:5b:cf:cd:9d:2b:2c:3c:47:71:
                    48:99:af:05:ba:cd:50:43:de:0a:a9:4d:6a:58:99:
                    d2:82:5d:fa:46:87:cb:86:a5:e1:b2:34:08:89:87:
                    b1:3c:95:18:ab:19:ce:ac:64:0f:4b:9c:a3:c7:5f:
                    01:9e:d4:0a:73:d8:95:d6:19:d8:d7:e2:89:33:de:
                    04:93:f5:32:5a:ef:38:e0:82:e6:51:0c:7e:5d:74:
                    47:97:23:c1:70:17:3a:86:86:c8:4b:e9:89:1c:d3:
                    0d:f8:61:4a:a0:be:96:4f:a6:77:f3:36:22:c2:91:
                    23:e5
                Exponent: 65537 (0x10001)
        X509v3 extensions:
            X509v3 Basic Constraints: 
                CA:FALSE
            X509v3 Subject Key Identifier: 
                A6:5B:E5:D3:F0:E0:3A:32:5E:24:DA:E6:D9:CD:BD:1D:18:1D:38:DD
            X509v3 Authority Key Identifier: 
                keyid:19:7F:95:3A:F6:68:62:0C:BF:9D:9E:DE:4E:05:9F:71:90:2B:AA:5A
                DirName:/CN=Lazarus CA
                serial:EA:FF:0E:64:F6:67:9F:E9

            X509v3 Extended Key Usage: 
                TLS Web Client Authentication
            X509v3 Key Usage: 
                Digital Signature
    Signature Algorithm: sha256WithRSAEncryption
         13:41:03:46:af:14:ec:18:2d:d5:c7:39:06:b1:0d:e4:89:dd:
         e4:7d:e9:a5:67:26:d7:f6:d8:b7:87:f3:9a:cd:60:0c:43:dc:
         58:b5:a8:42:25:c2:8d:91:eb:e3:6d:26:57:3a:97:d8:b6:50:
         d0:71:7a:00:26:5e:d7:23:98:9f:50:c6:92:03:b3:23:d3:73:
         7b:ed:f9:36:16:9c:32:bd:d2:25:e0:0d:16:1e:ab:ff:18:64:
         cc:40:30:dd:29:63:fe:20:bf:07:88:de:47:a3:95:f4:9e:80:
         64:3d:b8:48:cd:61:e3:90:43:b0:ec:04:52:91:41:66:87:69:
         f3:5f:3b:91:49:e2:5b:85:45:db:a9:e0:16:87:88:9a:e8:eb:
         a4:66:e7:5c:5d:c0:e0:c9:68:e8:e3:77:a2:ab:7f:01:9a:62:
         63:1a:95:6a:18:56:68:12:7e:4b:de:61:aa:c7:b5:c3:06:33:
         b4:a1:b0:5e:29:60:9b:86:4b:f9:3f:b5:db:97:7a:b0:3f:f4:
         b7:11:b7:d3:89:34:97:a2:f9:81:f9:b8:58:2c:88:90:67:ec:
         fc:11:8f:45:0f:b8:0b:37:6b:40:06:7a:e0:78:31:00:09:12:
         0c:11:f2:63:2d:83:21:5e:84:1a:ab:20:08:d2:8a:f4:b1:f5:
         a2:50:e5:8e
-----BEGIN CERTIFICATE-----
MIIDVDCCAjygAwIBAgIRALp103H9nVyKRh3zZIQYFeEwDQYJKoZIhvcNAQELBQAw
FTETMBEGA1UEAwwKTGF6YXJ1cyBDQTAeFw0xOTA0MjQxOTEyNTRaFw0yMjA0MDgx
OTEyNTRaMB0xGzAZBgNVBAMMEkZSRUUtTXctMTU1NjEzMzE3NTCCASIwDQYJKoZI
hvcNAQEBBQADggEPADCCAQoCggEBANsfQu/N0YZytgCwU0cKUOzAxMU8VueJiPFe
Id3wVC6zzcJyHIsFoC9BW99zeZQH6C8sCiGHR6SQYSvXLxb/weq+2ZWqVJFTaTZE
a5PuYdMWe3a3j7MetjVY4Pfb8Qx/qbM1f7Y1EGg7qDmzR65SsMdtCa6NfD2WjpTS
1mfDgQVDxcQqkqO/GrL49Qn1W8/NnSssPEdxSJmvBbrNUEPeCqlNaliZ0oJd+kaH
y4al4bI0CImHsTyVGKsZzqxkD0uco8dfAZ7UCnPYldYZ2NfiiTPeBJP1MlrvOOCC
5lEMfl10R5cjwXAXOoaGyEvpiRzTDfhhSqC+lk+md/M2IsKRI+UCAwEAAaOBljCB
kzAJBgNVHRMEAjAAMB0GA1UdDgQWBBSmW+XT8OA6Ml4k2ubZzb0dGB043TBFBgNV
HSMEPjA8gBQZf5U69mhiDL+dnt5OBZ9xkCuqWqEZpBcwFTETMBEGA1UEAwwKTGF6
YXJ1cyBDQYIJAOr/DmT2Z5/pMBMGA1UdJQQMMAoGCCsGAQUFBwMCMAsGA1UdDwQE
AwIHgDANBgkqhkiG9w0BAQsFAAOCAQEAE0EDRq8U7Bgt1cc5BrEN5Ind5H3ppWcm
1/bYt4fzms1gDEPcWLWoQiXCjZHr420mVzqX2LZQ0HF6ACZe1yOYn1DGkgOzI9Nz
e+35NhacMr3SJeANFh6r/xhkzEAw3Slj/iC/B4jeR6OV9J6AZD24SM1h45BDsOwE
UpFBZodp8187kUniW4VF26ngFoeImujrpGbnXF3A4Mlo6ON3oqt/AZpiYxqVahhW
aBJ+S95hqse1wwYztKGwXilgm4ZL+T+125d6sD/0txG304k0l6L5gfm4WCyIkGfs
/BGPRQ+4CzdrQAZ64HgxAAkSDBHyYy2DIV6EGqsgCNKK9LH1olDljg==
-----END CERTIFICATE-----
