Certificate:
    Data:
        Version: 3 (0x2)
        Serial Number:
            5d:74:cf:95:cb:c2:a2:b8:b7:35:29:cc:32:60:35:19
    Signature Algorithm: sha256WithRSAEncryption
        Issuer: CN=Lazarus CA
        Validity
            Not Before: Apr 25 05:41:54 2019 GMT
            Not After : Apr  9 05:41:54 2022 GMT
        Subject: CN=FREE__NQ__1556170914
        Subject Public Key Info:
            Public Key Algorithm: rsaEncryption
                Public-Key: (2048 bit)
                Modulus:
                    00:c9:5d:98:d6:ce:93:3e:bd:d1:9e:d2:24:8d:db:
                    de:6a:67:39:25:ef:79:71:1d:48:9d:4c:72:0d:45:
                    53:d1:60:b1:05:20:1d:e2:32:4a:f7:fc:e9:d9:e5:
                    06:0c:c5:44:05:64:0d:36:48:6a:ab:72:60:18:4a:
                    53:91:b8:dd:f0:35:fe:0c:3e:0f:c7:e0:e0:f8:3a:
                    33:33:84:52:4e:de:e3:27:fd:1a:24:e0:ab:ba:f5:
                    9a:ee:d5:08:37:84:f7:7c:e1:72:78:1a:5d:0c:62:
                    e3:08:72:80:6c:ca:d4:cc:69:a7:55:25:c1:07:0e:
                    59:98:67:f2:da:ac:65:7c:d8:e1:fc:71:0e:04:58:
                    be:77:4f:15:fa:c3:e4:d1:f6:c2:eb:92:ca:6e:b1:
                    cb:a3:5e:b1:dc:bf:e8:58:7b:e5:c8:87:3d:47:b4:
                    38:c2:c9:99:1c:be:b6:e2:84:3a:49:e3:3b:83:29:
                    7f:92:a8:39:08:50:85:aa:62:bf:49:97:03:51:61:
                    af:a2:4b:48:e2:ca:d2:e2:78:b8:7d:d5:60:40:4c:
                    0f:6a:11:20:9e:82:d6:3f:06:72:69:00:7d:8b:99:
                    c2:8c:94:84:84:15:87:09:32:9a:e7:16:16:ec:0a:
                    0c:8a:b1:6f:5a:f9:a3:2a:3d:05:ed:d2:26:ab:9a:
                    c3:b3
                Exponent: 65537 (0x10001)
        X509v3 extensions:
            X509v3 Basic Constraints: 
                CA:FALSE
            X509v3 Subject Key Identifier: 
                97:42:1B:FB:97:A0:58:19:3D:67:05:A2:99:54:50:06:A1:8C:75:67
            X509v3 Authority Key Identifier: 
                keyid:19:7F:95:3A:F6:68:62:0C:BF:9D:9E:DE:4E:05:9F:71:90:2B:AA:5A
                DirName:/CN=Lazarus CA
                serial:EA:FF:0E:64:F6:67:9F:E9

            X509v3 Extended Key Usage: 
                TLS Web Client Authentication
            X509v3 Key Usage: 
                Digital Signature
    Signature Algorithm: sha256WithRSAEncryption
         42:72:ed:70:55:6d:b3:eb:f5:3b:98:92:c9:e6:a3:a0:15:7f:
         94:9d:a4:f6:21:e1:e5:44:2f:23:cc:13:50:36:34:aa:c7:22:
         95:f9:09:ed:14:f0:ec:dd:c0:81:83:2d:14:75:64:f5:e1:07:
         59:24:e4:47:c3:4c:27:35:13:cb:42:0a:79:92:1a:64:67:89:
         d7:5a:bb:34:e5:1b:6a:bf:73:0f:62:86:c2:06:80:2b:44:1a:
         c6:bf:62:b1:9f:60:cc:ca:91:4e:2e:a5:42:65:67:92:a9:37:
         0f:b4:87:54:c6:36:16:48:c2:e0:56:37:cd:39:ab:4a:c2:7b:
         e3:8d:c2:fd:df:73:4c:d3:fe:59:f2:be:45:32:d9:f8:92:e6:
         0c:b4:c2:ba:3d:50:94:24:a5:c7:8c:c3:50:93:2b:1a:95:97:
         14:b4:99:73:71:19:84:94:c3:f8:c7:1d:bd:52:69:7a:db:52:
         d1:6f:be:9b:30:a1:5d:e5:fb:a8:e4:a9:b0:93:23:49:66:b5:
         8e:6e:b1:aa:bc:7f:00:b5:06:4b:e5:6b:aa:5a:24:f0:c0:cc:
         8b:96:dc:e6:23:2a:21:76:4c:8b:58:06:16:21:1c:60:0f:13:
         c0:42:61:32:ac:0c:f2:8b:1f:70:35:43:86:14:5b:67:13:87:
         52:5a:91:dc
-----BEGIN CERTIFICATE-----
MIIDVTCCAj2gAwIBAgIQXXTPlcvCori3NSnMMmA1GTANBgkqhkiG9w0BAQsFADAV
MRMwEQYDVQQDDApMYXphcnVzIENBMB4XDTE5MDQyNTA1NDE1NFoXDTIyMDQwOTA1
NDE1NFowHzEdMBsGA1UEAwwURlJFRV9fTlFfXzE1NTYxNzA5MTQwggEiMA0GCSqG
SIb3DQEBAQUAA4IBDwAwggEKAoIBAQDJXZjWzpM+vdGe0iSN295qZzkl73lxHUid
THINRVPRYLEFIB3iMkr3/OnZ5QYMxUQFZA02SGqrcmAYSlORuN3wNf4MPg/H4OD4
OjMzhFJO3uMn/Rok4Ku69Zru1Qg3hPd84XJ4Gl0MYuMIcoBsytTMaadVJcEHDlmY
Z/LarGV82OH8cQ4EWL53TxX6w+TR9sLrkspuscujXrHcv+hYe+XIhz1HtDjCyZkc
vrbihDpJ4zuDKX+SqDkIUIWqYr9JlwNRYa+iS0jiytLieLh91WBATA9qESCegtY/
BnJpAH2LmcKMlISEFYcJMprnFhbsCgyKsW9a+aMqPQXt0iarmsOzAgMBAAGjgZYw
gZMwCQYDVR0TBAIwADAdBgNVHQ4EFgQUl0Ib+5egWBk9ZwWimVRQBqGMdWcwRQYD
VR0jBD4wPIAUGX+VOvZoYgy/nZ7eTgWfcZArqlqhGaQXMBUxEzARBgNVBAMMCkxh
emFydXMgQ0GCCQDq/w5k9mef6TATBgNVHSUEDDAKBggrBgEFBQcDAjALBgNVHQ8E
BAMCB4AwDQYJKoZIhvcNAQELBQADggEBAEJy7XBVbbPr9TuYksnmo6AVf5SdpPYh
4eVELyPME1A2NKrHIpX5Ce0U8OzdwIGDLRR1ZPXhB1kk5EfDTCc1E8tCCnmSGmRn
iddauzTlG2q/cw9ihsIGgCtEGsa/YrGfYMzKkU4upUJlZ5KpNw+0h1TGNhZIwuBW
N805q0rCe+ONwv3fc0zT/lnyvkUy2fiS5gy0wro9UJQkpceMw1CTKxqVlxS0mXNx
GYSUw/jHHb1SaXrbUtFvvpswoV3l+6jkqbCTI0lmtY5usaq8fwC1Bkvla6paJPDA
zIuW3OYjKiF2TItYBhYhHGAPE8BCYTKsDPKLH3A1Q4YUW2cTh1Jakdw=
-----END CERTIFICATE-----
