Certificate:
    Data:
        Version: 3 (0x2)
        Serial Number:
            e8:fb:c3:42:56:52:20:1b:fb:50:38:65:3d:55:29:02
        Signature Algorithm: sha256WithRSAEncryption
        Issuer: CN=Lazarus CA
        Validity
            Not Before: Jul  4 03:22:57 2019 GMT
            Not After : Jun 18 03:22:57 2022 GMT
        Subject: CN=FREE__MjE__1562210577
        Subject Public Key Info:
            Public Key Algorithm: rsaEncryption
                RSA Public-Key: (2048 bit)
                Modulus:
                    00:e5:fe:c8:41:25:ae:2b:2f:ef:58:47:15:06:49:
                    29:a5:09:3f:0c:42:35:36:2d:1e:4e:09:90:f1:5f:
                    9e:0a:52:ac:5d:93:36:95:f6:54:18:32:3b:28:0e:
                    eb:d0:d5:db:dd:e3:3d:64:6b:7f:a9:07:16:45:bc:
                    78:f2:14:6d:e5:34:38:46:c8:82:5a:3f:b4:0a:09:
                    d1:c6:ae:52:9a:36:bf:b7:59:4f:4f:78:bc:e2:18:
                    62:e2:e7:c3:cc:53:d2:59:c5:65:e6:11:bf:51:6a:
                    8b:38:85:4e:a3:e3:f7:e1:79:c7:75:d0:94:6b:b1:
                    1b:59:0e:96:8b:5e:1a:0d:de:f9:0d:15:99:35:7a:
                    8a:14:0a:ef:5b:48:15:08:3b:1e:0e:30:6e:b3:a4:
                    c8:d9:27:98:54:56:a9:db:a2:4a:2f:65:20:55:c2:
                    23:a5:f4:88:a8:3b:5d:a1:cd:5e:00:2e:04:d2:fc:
                    bd:0a:47:45:17:2d:9a:3e:46:3d:dc:f4:a0:cb:bd:
                    df:32:2a:90:4d:8d:93:b3:83:63:1e:b0:68:49:3a:
                    d7:e4:99:12:88:62:b5:f8:f9:48:e5:03:cf:0b:82:
                    e1:4f:fe:da:74:19:9a:2b:c2:06:38:ac:c7:10:2d:
                    4a:d9:da:16:29:32:bd:e5:b6:6f:fe:1c:39:3b:f2:
                    15:e5
                Exponent: 65537 (0x10001)
        X509v3 extensions:
            X509v3 Basic Constraints: 
                CA:FALSE
            X509v3 Subject Key Identifier: 
                88:38:94:67:8F:77:CF:D4:6B:D3:7E:F8:4F:13:D6:AB:43:5B:15:D0
            X509v3 Authority Key Identifier: 
                keyid:19:7F:95:3A:F6:68:62:0C:BF:9D:9E:DE:4E:05:9F:71:90:2B:AA:5A
                DirName:/CN=Lazarus CA
                serial:EA:FF:0E:64:F6:67:9F:E9

            X509v3 Extended Key Usage: 
                TLS Web Client Authentication
            X509v3 Key Usage: 
                Digital Signature
    Signature Algorithm: sha256WithRSAEncryption
         0c:72:82:5f:34:61:c5:5c:bc:38:fb:a3:7c:f3:20:51:a6:7f:
         e3:f2:bb:25:02:0d:06:2c:65:4a:b8:e8:46:67:f8:69:64:9e:
         a6:6f:67:aa:dc:e7:1a:05:53:37:37:32:27:ef:90:68:8b:96:
         99:c3:a2:d7:e5:ad:92:93:62:5a:d8:a4:86:40:17:2b:0d:24:
         b1:69:87:d2:15:1f:36:ec:2c:d9:1c:a3:a4:5c:07:0c:b2:c9:
         2c:e6:18:22:7d:ae:49:09:39:89:29:5b:c0:e5:7c:48:d5:49:
         29:ae:8a:18:48:71:44:d9:6b:ee:57:2d:ed:f9:c3:71:f8:e6:
         99:5d:c9:92:08:c7:67:c6:cd:81:9f:8c:fe:38:38:bd:da:82:
         f1:ef:04:52:07:a8:43:3c:53:df:e4:43:e9:56:58:ce:76:8e:
         cf:66:70:93:50:63:02:a9:2a:ef:45:22:19:16:49:e5:94:21:
         c4:47:bd:9b:4b:5d:cf:4f:14:c9:38:b0:4c:7d:25:c3:d9:fa:
         6d:2c:5f:7b:43:79:a4:04:e9:f4:d6:21:df:fd:b4:7f:e3:cc:
         59:fa:96:f8:82:93:22:8f:f7:f5:12:79:6b:94:75:30:34:19:
         3c:58:5f:39:eb:17:8e:45:a6:91:7a:46:e2:78:ad:9d:d0:bc:
         7c:52:e4:e6
-----BEGIN CERTIFICATE-----
MIIDVzCCAj+gAwIBAgIRAOj7w0JWUiAb+1A4ZT1VKQIwDQYJKoZIhvcNAQELBQAw
FTETMBEGA1UEAwwKTGF6YXJ1cyBDQTAeFw0xOTA3MDQwMzIyNTdaFw0yMjA2MTgw
MzIyNTdaMCAxHjAcBgNVBAMMFUZSRUVfX01qRV9fMTU2MjIxMDU3NzCCASIwDQYJ
KoZIhvcNAQEBBQADggEPADCCAQoCggEBAOX+yEElrisv71hHFQZJKaUJPwxCNTYt
Hk4JkPFfngpSrF2TNpX2VBgyOygO69DV293jPWRrf6kHFkW8ePIUbeU0OEbIglo/
tAoJ0cauUpo2v7dZT094vOIYYuLnw8xT0lnFZeYRv1FqiziFTqPj9+F5x3XQlGux
G1kOloteGg3e+Q0VmTV6ihQK71tIFQg7Hg4wbrOkyNknmFRWqduiSi9lIFXCI6X0
iKg7XaHNXgAuBNL8vQpHRRctmj5GPdz0oMu93zIqkE2Nk7ODYx6waEk61+SZEohi
tfj5SOUDzwuC4U/+2nQZmivCBjisxxAtStnaFikyveW2b/4cOTvyFeUCAwEAAaOB
ljCBkzAJBgNVHRMEAjAAMB0GA1UdDgQWBBSIOJRnj3fP1GvTfvhPE9arQ1sV0DBF
BgNVHSMEPjA8gBQZf5U69mhiDL+dnt5OBZ9xkCuqWqEZpBcwFTETMBEGA1UEAwwK
TGF6YXJ1cyBDQYIJAOr/DmT2Z5/pMBMGA1UdJQQMMAoGCCsGAQUFBwMCMAsGA1Ud
DwQEAwIHgDANBgkqhkiG9w0BAQsFAAOCAQEADHKCXzRhxVy8OPujfPMgUaZ/4/K7
JQINBixlSrjoRmf4aWSepm9nqtznGgVTNzcyJ++QaIuWmcOi1+WtkpNiWtikhkAX
Kw0ksWmH0hUfNuws2RyjpFwHDLLJLOYYIn2uSQk5iSlbwOV8SNVJKa6KGEhxRNlr
7lct7fnDcfjmmV3JkgjHZ8bNgZ+M/jg4vdqC8e8EUgeoQzxT3+RD6VZYznaOz2Zw
k1BjAqkq70UiGRZJ5ZQhxEe9m0tdz08UyTiwTH0lw9n6bSxfe0N5pATp9NYh3/20
f+PMWfqW+IKTIo/39RJ5a5R1MDQZPFhfOesXjkWmkXpG4nitndC8fFLk5g==
-----END CERTIFICATE-----
