Certificate:
    Data:
        Version: 3 (0x2)
        Serial Number:
            6e:74:db:f0:90:99:10:78:45:99:4a:9a:25:b4:27:bc
    Signature Algorithm: sha256WithRSAEncryption
        Issuer: CN=Lazarus CA
        Validity
            Not Before: May  7 12:50:32 2019 GMT
            Not After : Apr 21 12:50:32 2022 GMT
        Subject: CN=FREE__OQ__1557233431
        Subject Public Key Info:
            Public Key Algorithm: rsaEncryption
                Public-Key: (2048 bit)
                Modulus:
                    00:c2:55:12:a3:62:70:60:7f:c5:bf:fc:ea:86:ed:
                    ae:e4:2c:19:15:07:68:28:44:f4:d8:db:d0:6f:fe:
                    9e:a3:f7:53:d8:e3:cb:66:c4:c7:dc:27:c9:37:26:
                    3e:0e:1b:6b:f0:0c:d7:17:ba:eb:20:b9:f9:30:04:
                    25:0d:47:dd:70:54:d0:13:4e:b9:ca:77:99:07:5a:
                    69:1c:a8:f8:bd:aa:05:ad:94:dc:d7:bc:3c:be:76:
                    8a:c5:e1:64:2c:6c:a2:61:af:9d:08:27:03:fc:60:
                    fb:30:d5:b1:ef:2b:f7:d5:28:85:56:32:ca:c5:d5:
                    f0:7a:78:71:b7:d9:fc:d9:79:be:85:44:c6:18:8e:
                    68:d9:49:34:7c:d1:62:12:76:50:0c:ea:0b:b4:1c:
                    22:c6:15:c3:af:89:b6:81:bc:c6:b3:14:2e:1f:ea:
                    c7:36:6e:6b:79:9a:ca:7a:fb:25:4c:f7:11:34:c0:
                    c3:01:b1:a8:71:6b:1f:a3:76:cd:24:f1:6f:55:db:
                    00:a2:c0:8d:35:29:a1:6e:4b:c4:05:21:57:c9:9a:
                    d1:98:36:7e:c2:ab:bd:87:ab:67:31:2a:c6:70:42:
                    90:b6:a1:c3:ea:2d:3c:f2:3e:64:0e:76:37:13:99:
                    90:5a:54:80:a4:e3:c5:68:96:fe:7a:ec:6a:76:39:
                    b3:23
                Exponent: 65537 (0x10001)
        X509v3 extensions:
            X509v3 Basic Constraints: 
                CA:FALSE
            X509v3 Subject Key Identifier: 
                E1:1D:E1:47:CF:40:05:45:21:F8:E3:FE:F7:F3:30:8E:C5:00:61:92
            X509v3 Authority Key Identifier: 
                keyid:19:7F:95:3A:F6:68:62:0C:BF:9D:9E:DE:4E:05:9F:71:90:2B:AA:5A
                DirName:/CN=Lazarus CA
                serial:EA:FF:0E:64:F6:67:9F:E9

            X509v3 Extended Key Usage: 
                TLS Web Client Authentication
            X509v3 Key Usage: 
                Digital Signature
    Signature Algorithm: sha256WithRSAEncryption
         6b:eb:58:89:98:8f:7a:a0:97:aa:7c:1c:97:ff:8b:7b:7c:ae:
         e4:c2:50:3d:87:eb:1f:a9:e3:81:54:e5:70:0f:c2:f1:4b:93:
         64:40:52:96:e0:ab:70:15:b9:9e:52:7a:c4:ae:74:72:b6:5c:
         c0:ec:46:d5:a4:3b:a0:b6:45:1f:15:a0:d2:a0:f2:3b:75:d7:
         cf:27:ad:71:15:14:61:7a:51:e2:d8:af:02:1f:a1:13:ef:c4:
         c3:51:93:c3:5e:c6:9a:16:c5:a1:b6:53:26:47:5d:74:b9:19:
         b9:b5:94:9a:73:e7:f0:55:3c:64:c3:1d:3b:36:06:9d:74:b3:
         60:e6:0c:5a:a6:2b:6d:cc:88:8e:e1:eb:9b:c5:a6:26:71:91:
         b6:62:eb:f4:e6:a2:e7:32:4e:cf:08:8e:b4:62:83:fd:fb:1d:
         10:82:6d:f7:64:b2:ed:eb:fe:5e:76:b6:5b:af:63:1a:06:bd:
         c8:86:4d:d6:91:67:ee:91:8b:a0:53:05:46:de:fd:10:6e:9e:
         3f:db:38:24:6e:69:7a:79:56:01:11:96:12:86:08:ef:75:f8:
         5c:b0:ef:5e:5f:7a:1a:f6:20:78:ab:28:5c:d6:20:67:0d:ca:
         59:cd:01:ac:2e:b5:af:15:17:ef:b3:0d:79:85:7b:68:fc:53:
         a4:9c:55:84
-----BEGIN CERTIFICATE-----
MIIDVTCCAj2gAwIBAgIQbnTb8JCZEHhFmUqaJbQnvDANBgkqhkiG9w0BAQsFADAV
MRMwEQYDVQQDDApMYXphcnVzIENBMB4XDTE5MDUwNzEyNTAzMloXDTIyMDQyMTEy
NTAzMlowHzEdMBsGA1UEAwwURlJFRV9fT1FfXzE1NTcyMzM0MzEwggEiMA0GCSqG
SIb3DQEBAQUAA4IBDwAwggEKAoIBAQDCVRKjYnBgf8W//OqG7a7kLBkVB2goRPTY
29Bv/p6j91PY48tmxMfcJ8k3Jj4OG2vwDNcXuusgufkwBCUNR91wVNATTrnKd5kH
WmkcqPi9qgWtlNzXvDy+dorF4WQsbKJhr50IJwP8YPsw1bHvK/fVKIVWMsrF1fB6
eHG32fzZeb6FRMYYjmjZSTR80WISdlAM6gu0HCLGFcOvibaBvMazFC4f6sc2bmt5
msp6+yVM9xE0wMMBsahxax+jds0k8W9V2wCiwI01KaFuS8QFIVfJmtGYNn7Cq72H
q2cxKsZwQpC2ocPqLTzyPmQOdjcTmZBaVICk48Volv567Gp2ObMjAgMBAAGjgZYw
gZMwCQYDVR0TBAIwADAdBgNVHQ4EFgQU4R3hR89ABUUh+OP+9/MwjsUAYZIwRQYD
VR0jBD4wPIAUGX+VOvZoYgy/nZ7eTgWfcZArqlqhGaQXMBUxEzARBgNVBAMMCkxh
emFydXMgQ0GCCQDq/w5k9mef6TATBgNVHSUEDDAKBggrBgEFBQcDAjALBgNVHQ8E
BAMCB4AwDQYJKoZIhvcNAQELBQADggEBAGvrWImYj3qgl6p8HJf/i3t8ruTCUD2H
6x+p44FU5XAPwvFLk2RAUpbgq3AVuZ5SesSudHK2XMDsRtWkO6C2RR8VoNKg8jt1
188nrXEVFGF6UeLYrwIfoRPvxMNRk8NexpoWxaG2UyZHXXS5Gbm1lJpz5/BVPGTD
HTs2Bp10s2DmDFqmK23MiI7h65vFpiZxkbZi6/TmoucyTs8IjrRig/37HRCCbfdk
su3r/l52tluvYxoGvciGTdaRZ+6Ri6BTBUbe/RBunj/bOCRuaXp5VgERlhKGCO91
+Fyw715fehr2IHirKFzWIGcNylnNAawuta8VF++zDXmFe2j8U6ScVYQ=
-----END CERTIFICATE-----
