Certificate:
    Data:
        Version: 3 (0x2)
        Serial Number:
            7f:f6:d6:c4:b1:40:87:c3:ae:dc:44:29:81:68:20:0e
        Signature Algorithm: sha256WithRSAEncryption
        Issuer: CN=Lazarus CA
        Validity
            Not Before: Jul  4 03:05:40 2019 GMT
            Not After : Jun 18 03:05:40 2022 GMT
        Subject: CN=FREE__MjI__1562209539
        Subject Public Key Info:
            Public Key Algorithm: rsaEncryption
                RSA Public-Key: (2048 bit)
                Modulus:
                    00:b9:d9:04:f8:e3:4c:31:a8:62:1a:50:ca:71:e6:
                    3a:33:b6:6e:74:c1:2e:b4:25:9f:3f:b1:49:ab:3b:
                    fd:d8:20:57:c0:e1:38:8f:b3:67:4d:01:b4:6c:67:
                    cd:74:a1:d8:23:12:69:69:84:fe:c4:c3:9c:2d:63:
                    a1:f8:d6:45:d7:93:70:ab:c5:d0:68:38:ce:62:9f:
                    b4:18:83:2d:35:85:6c:4c:09:92:48:48:1a:d2:6a:
                    7a:51:20:76:c4:0a:30:bf:53:6b:e1:e9:b2:fa:b2:
                    66:0e:d4:62:36:af:e0:bd:a3:e2:7c:77:87:c5:21:
                    18:17:91:99:c4:69:bb:a5:0a:8d:80:2b:e4:92:14:
                    4b:5a:b0:a7:e0:f9:95:ac:e2:7c:1a:40:fa:a8:a5:
                    b3:da:5b:39:22:46:7a:d0:ae:ad:8a:e2:19:1c:21:
                    29:b5:17:1e:e0:5a:4d:96:a6:68:11:f8:08:89:d4:
                    05:75:13:2e:d2:c0:77:fb:a5:f7:93:f4:06:71:bb:
                    36:5c:de:10:48:62:26:0b:b1:d4:57:76:d2:f0:b6:
                    1f:a9:fa:67:5c:a9:09:22:2c:30:c0:e5:f1:5a:a5:
                    7c:3f:82:ea:e8:ad:7f:3b:36:4c:cb:69:f3:3a:37:
                    16:2f:65:14:8c:de:21:d6:71:f8:dd:65:1d:56:53:
                    05:7b
                Exponent: 65537 (0x10001)
        X509v3 extensions:
            X509v3 Basic Constraints: 
                CA:FALSE
            X509v3 Subject Key Identifier: 
                AF:9A:65:6E:BC:0A:68:71:F3:69:40:09:9B:08:98:82:EE:D9:DA:67
            X509v3 Authority Key Identifier: 
                keyid:19:7F:95:3A:F6:68:62:0C:BF:9D:9E:DE:4E:05:9F:71:90:2B:AA:5A
                DirName:/CN=Lazarus CA
                serial:EA:FF:0E:64:F6:67:9F:E9

            X509v3 Extended Key Usage: 
                TLS Web Client Authentication
            X509v3 Key Usage: 
                Digital Signature
    Signature Algorithm: sha256WithRSAEncryption
         cc:96:ff:e8:bb:e1:a7:7a:8c:e4:49:d5:dd:f8:00:51:13:6d:
         39:1c:44:e8:ec:e6:ff:c0:29:f3:e4:77:ce:f0:5b:87:e4:27:
         f5:0f:c2:c3:0b:32:4b:05:c1:5e:6e:09:75:d8:82:67:b0:2b:
         cd:e9:1b:01:a7:dd:84:33:3e:99:bb:f2:06:9f:1a:8d:13:ce:
         96:07:49:aa:d4:31:4b:07:2c:e2:40:6e:8e:f4:fb:61:75:fd:
         7d:a6:c4:2d:a0:a4:20:d6:fa:a4:bd:64:ed:e1:ed:d0:70:a5:
         7e:03:1b:23:7f:cb:f6:67:05:56:cd:a0:5e:44:32:b1:0a:83:
         fa:f8:b0:83:46:85:8b:f5:fe:49:2c:84:86:93:4c:55:04:29:
         cc:c5:ec:ae:b6:99:da:31:8c:43:35:fd:a3:1a:75:7e:84:25:
         fa:38:42:86:81:11:7d:f2:47:69:7a:be:5e:54:40:bb:2f:70:
         ed:b4:0c:eb:d8:bb:1b:97:1e:13:10:9b:e8:07:86:ee:2d:81:
         35:0b:fb:20:bd:2b:39:ec:59:ad:05:1f:57:85:d2:4f:ab:19:
         cc:8a:1f:c1:33:af:09:1a:10:7b:68:07:4c:d8:66:28:df:40:
         2b:48:a6:8c:97:2b:b8:f3:9b:10:a8:0d:8f:0a:2e:30:89:39:
         58:83:c8:de
-----BEGIN CERTIFICATE-----
MIIDVjCCAj6gAwIBAgIQf/bWxLFAh8Ou3EQpgWggDjANBgkqhkiG9w0BAQsFADAV
MRMwEQYDVQQDDApMYXphcnVzIENBMB4XDTE5MDcwNDAzMDU0MFoXDTIyMDYxODAz
MDU0MFowIDEeMBwGA1UEAwwVRlJFRV9fTWpJX18xNTYyMjA5NTM5MIIBIjANBgkq
hkiG9w0BAQEFAAOCAQ8AMIIBCgKCAQEAudkE+ONMMahiGlDKceY6M7ZudMEutCWf
P7FJqzv92CBXwOE4j7NnTQG0bGfNdKHYIxJpaYT+xMOcLWOh+NZF15Nwq8XQaDjO
Yp+0GIMtNYVsTAmSSEga0mp6USB2xAowv1Nr4emy+rJmDtRiNq/gvaPifHeHxSEY
F5GZxGm7pQqNgCvkkhRLWrCn4PmVrOJ8GkD6qKWz2ls5IkZ60K6tiuIZHCEptRce
4FpNlqZoEfgIidQFdRMu0sB3+6X3k/QGcbs2XN4QSGImC7HUV3bS8LYfqfpnXKkJ
IiwwwOXxWqV8P4Lq6K1/OzZMy2nzOjcWL2UUjN4h1nH43WUdVlMFewIDAQABo4GW
MIGTMAkGA1UdEwQCMAAwHQYDVR0OBBYEFK+aZW68Cmhx82lACZsImILu2dpnMEUG
A1UdIwQ+MDyAFBl/lTr2aGIMv52e3k4Fn3GQK6paoRmkFzAVMRMwEQYDVQQDDApM
YXphcnVzIENBggkA6v8OZPZnn+kwEwYDVR0lBAwwCgYIKwYBBQUHAwIwCwYDVR0P
BAQDAgeAMA0GCSqGSIb3DQEBCwUAA4IBAQDMlv/ou+GneozkSdXd+ABRE205HETo
7Ob/wCnz5HfO8FuH5Cf1D8LDCzJLBcFebgl12IJnsCvN6RsBp92EMz6Zu/IGnxqN
E86WB0mq1DFLByziQG6O9Pthdf19psQtoKQg1vqkvWTt4e3QcKV+Axsjf8v2ZwVW
zaBeRDKxCoP6+LCDRoWL9f5JLISGk0xVBCnMxeyutpnaMYxDNf2jGnV+hCX6OEKG
gRF98kdper5eVEC7L3DttAzr2Lsblx4TEJvoB4buLYE1C/sgvSs57FmtBR9XhdJP
qxnMih/BM68JGhB7aAdM2GYo30ArSKaMlyu485sQqA2PCi4wiTlYg8je
-----END CERTIFICATE-----
