Certificate:
    Data:
        Version: 3 (0x2)
        Serial Number:
            f7:2f:94:53:b9:17:ae:de:02:79:d7:f5:56:98:b8:f8
    Signature Algorithm: sha256WithRSAEncryption
        Issuer: CN=Lazarus CA
        Validity
            Not Before: Apr 25 17:56:58 2019 GMT
            Not After : Apr  9 17:56:58 2022 GMT
        Subject: CN=FREE__NQ__1556215018
        Subject Public Key Info:
            Public Key Algorithm: rsaEncryption
                Public-Key: (2048 bit)
                Modulus:
                    00:c2:61:e6:a7:19:dc:50:c0:8e:a5:12:3e:0f:06:
                    d1:32:a6:d9:cc:a2:30:67:75:08:a7:80:4d:6b:7b:
                    d2:d3:3a:32:aa:e7:f5:fd:60:5d:57:ae:3c:b6:9f:
                    1a:71:2e:b0:da:e9:e7:4f:af:3d:c5:2c:10:10:8b:
                    53:20:42:96:06:46:55:d8:73:5a:8c:67:2e:e1:d2:
                    4d:50:5e:32:80:01:60:81:3a:ac:d1:b7:6c:9b:0d:
                    20:9b:f3:17:7e:8b:3a:77:b9:c3:eb:c4:50:52:ec:
                    4a:b6:03:fc:7b:3c:29:c8:0e:bc:28:4b:a3:b8:9f:
                    7e:6c:c7:6f:68:00:33:8e:ad:8f:70:e3:78:de:fd:
                    d8:86:a1:75:24:7d:e2:0c:19:95:5b:51:de:23:31:
                    5e:f9:99:23:a1:de:4a:1c:c5:6a:af:ed:06:6f:0c:
                    dd:1b:e5:18:9b:3e:e0:d9:83:23:a0:5f:ea:46:92:
                    98:9b:0e:ac:fa:ba:c8:04:08:df:3c:d4:3e:5c:58:
                    0e:a7:52:bd:aa:2c:2e:01:17:bd:b5:93:52:77:3b:
                    36:b8:c7:14:4d:c4:88:d4:1a:28:7c:e4:53:20:b9:
                    18:34:a7:83:cb:0a:81:b4:b8:4b:20:38:8b:ff:b7:
                    0a:57:36:b6:3e:f9:00:da:34:73:ef:e7:85:9d:cd:
                    3d:ef
                Exponent: 65537 (0x10001)
        X509v3 extensions:
            X509v3 Basic Constraints: 
                CA:FALSE
            X509v3 Subject Key Identifier: 
                37:52:BF:55:80:92:E0:A0:9F:46:4F:6E:9A:35:AB:30:24:5A:00:B1
            X509v3 Authority Key Identifier: 
                keyid:19:7F:95:3A:F6:68:62:0C:BF:9D:9E:DE:4E:05:9F:71:90:2B:AA:5A
                DirName:/CN=Lazarus CA
                serial:EA:FF:0E:64:F6:67:9F:E9

            X509v3 Extended Key Usage: 
                TLS Web Client Authentication
            X509v3 Key Usage: 
                Digital Signature
    Signature Algorithm: sha256WithRSAEncryption
         61:fd:13:f3:42:10:61:5f:62:2e:d1:8c:c7:e4:fc:d0:31:d1:
         fa:ff:ad:da:1d:e8:41:4f:b9:a8:55:db:20:a3:95:b0:a5:1b:
         c3:cf:f8:ba:b6:31:88:31:81:92:5b:87:72:02:13:84:38:95:
         81:0d:12:64:92:da:20:70:81:30:e1:bb:48:bc:06:cc:7e:a7:
         f5:8f:82:c7:28:9e:47:d4:c2:61:e8:07:40:60:7a:e7:78:b3:
         85:d0:64:fe:7a:ad:7f:4c:96:e3:87:e6:3c:e1:88:b2:bd:42:
         4c:85:be:5c:80:d4:a5:a8:e4:fe:d6:2f:ab:3d:08:b0:ae:e1:
         1a:c8:b7:b6:47:12:9e:47:63:cc:51:91:a3:a9:23:07:61:f4:
         11:bc:5b:a4:a9:12:69:57:c7:87:b9:24:a7:25:1a:b5:3b:4e:
         df:25:42:b7:9c:7d:08:83:95:8e:e0:de:ae:81:9a:ae:8e:d5:
         4a:cd:99:09:ff:85:b6:de:5f:ac:dc:63:bb:6d:19:01:8e:21:
         0c:2d:41:d1:81:07:84:66:ee:b9:5f:d3:5c:9d:8f:05:b3:f9:
         38:a0:7f:94:e4:e4:3c:b2:e1:6f:02:0e:c9:eb:5e:e9:34:c3:
         e0:c6:44:f6:19:dc:36:10:f8:08:53:ad:9b:ff:3b:fd:ab:fc:
         ab:25:22:05
-----BEGIN CERTIFICATE-----
MIIDVjCCAj6gAwIBAgIRAPcvlFO5F67eAnnX9VaYuPgwDQYJKoZIhvcNAQELBQAw
FTETMBEGA1UEAwwKTGF6YXJ1cyBDQTAeFw0xOTA0MjUxNzU2NThaFw0yMjA0MDkx
NzU2NThaMB8xHTAbBgNVBAMMFEZSRUVfX05RX18xNTU2MjE1MDE4MIIBIjANBgkq
hkiG9w0BAQEFAAOCAQ8AMIIBCgKCAQEAwmHmpxncUMCOpRI+DwbRMqbZzKIwZ3UI
p4BNa3vS0zoyquf1/WBdV648tp8acS6w2unnT689xSwQEItTIEKWBkZV2HNajGcu
4dJNUF4ygAFggTqs0bdsmw0gm/MXfos6d7nD68RQUuxKtgP8ezwpyA68KEujuJ9+
bMdvaAAzjq2PcON43v3YhqF1JH3iDBmVW1HeIzFe+Zkjod5KHMVqr+0GbwzdG+UY
mz7g2YMjoF/qRpKYmw6s+rrIBAjfPNQ+XFgOp1K9qiwuARe9tZNSdzs2uMcUTcSI
1BoofORTILkYNKeDywqBtLhLIDiL/7cKVza2PvkA2jRz7+eFnc097wIDAQABo4GW
MIGTMAkGA1UdEwQCMAAwHQYDVR0OBBYEFDdSv1WAkuCgn0ZPbpo1qzAkWgCxMEUG
A1UdIwQ+MDyAFBl/lTr2aGIMv52e3k4Fn3GQK6paoRmkFzAVMRMwEQYDVQQDDApM
YXphcnVzIENBggkA6v8OZPZnn+kwEwYDVR0lBAwwCgYIKwYBBQUHAwIwCwYDVR0P
BAQDAgeAMA0GCSqGSIb3DQEBCwUAA4IBAQBh/RPzQhBhX2Iu0YzH5PzQMdH6/63a
HehBT7moVdsgo5WwpRvDz/i6tjGIMYGSW4dyAhOEOJWBDRJkktogcIEw4btIvAbM
fqf1j4LHKJ5H1MJh6AdAYHrneLOF0GT+eq1/TJbjh+Y84YiyvUJMhb5cgNSlqOT+
1i+rPQiwruEayLe2RxKeR2PMUZGjqSMHYfQRvFukqRJpV8eHuSSnJRq1O07fJUK3
nH0Ig5WO4N6ugZqujtVKzZkJ/4W23l+s3GO7bRkBjiEMLUHRgQeEZu65X9NcnY8F
s/k4oH+U5OQ8suFvAg7J617pNMPgxkT2Gdw2EPgIU62b/zv9q/yrJSIF
-----END CERTIFICATE-----
