Certificate:
    Data:
        Version: 3 (0x2)
        Serial Number:
            e4:24:7d:5a:49:11:ce:90:c2:6c:28:c9:56:a6:a8:55
    Signature Algorithm: sha256WithRSAEncryption
        Issuer: CN=Lazarus CA
        Validity
            Not Before: Apr  7 06:14:46 2019 GMT
            Not After : Mar 22 06:14:46 2022 GMT
        Subject: CN=kyle
        Subject Public Key Info:
            Public Key Algorithm: rsaEncryption
                Public-Key: (2048 bit)
                Modulus:
                    00:a2:2e:64:48:e5:0e:1e:a5:ab:d3:d3:c3:ab:aa:
                    1b:c6:3b:02:cf:c9:75:d8:fd:19:62:6a:da:4f:9a:
                    3b:06:06:da:45:b0:d3:a3:09:05:89:e8:ff:bf:42:
                    09:c5:9c:f0:e0:b7:7b:c5:09:ec:f1:22:74:29:c4:
                    ea:f1:f8:b5:08:64:05:dd:fb:e4:cc:51:33:fd:bd:
                    3b:9d:45:60:fa:c2:87:cf:a6:3c:49:45:3e:5b:dd:
                    83:7b:d6:7c:2d:7d:ee:02:77:ed:94:ac:b9:e8:63:
                    e4:3e:44:c7:f2:48:22:2e:4d:08:66:84:91:5f:81:
                    51:a4:14:04:af:13:bc:14:40:e7:b0:6a:22:1c:bd:
                    00:37:b4:4e:91:17:ab:60:3b:10:d8:be:0d:6c:e2:
                    5a:91:ca:87:1d:7c:06:dd:ce:49:75:a0:43:fc:e3:
                    55:85:bc:b8:c7:f0:1d:31:f0:15:79:e5:30:61:54:
                    35:f5:e6:7e:4e:41:67:11:10:9e:45:0c:df:8f:ca:
                    98:22:8f:90:26:d0:f3:a6:48:20:e1:d5:2f:dc:43:
                    7c:3f:27:8a:87:f4:9b:3e:14:bd:35:fc:55:11:d7:
                    c4:94:3e:30:75:07:d9:62:de:6a:66:5e:2a:aa:40:
                    e6:cc:b0:21:ba:c3:c4:de:b0:d7:7f:26:48:07:84:
                    75:21
                Exponent: 65537 (0x10001)
        X509v3 extensions:
            X509v3 Basic Constraints: 
                CA:FALSE
            X509v3 Subject Key Identifier: 
                05:DB:45:A4:6B:80:21:51:84:4D:D0:E5:F8:88:BA:EA:C9:22:E5:99
            X509v3 Authority Key Identifier: 
                keyid:19:7F:95:3A:F6:68:62:0C:BF:9D:9E:DE:4E:05:9F:71:90:2B:AA:5A
                DirName:/CN=Lazarus CA
                serial:EA:FF:0E:64:F6:67:9F:E9

            X509v3 Extended Key Usage: 
                TLS Web Client Authentication
            X509v3 Key Usage: 
                Digital Signature
    Signature Algorithm: sha256WithRSAEncryption
         13:f9:ba:ef:78:92:4b:e0:24:37:31:8a:b0:f9:8a:4e:c7:3e:
         f2:5e:5d:c9:f2:fd:05:1a:3a:b1:9b:2d:e2:db:70:73:0b:1e:
         77:ea:ef:4f:4c:b1:40:6b:7c:9b:69:fa:a4:0b:4d:41:35:79:
         5d:d6:82:a7:93:1f:69:6d:b8:a6:60:63:1b:4d:3d:bd:67:7a:
         f9:60:fb:66:d0:35:03:60:24:2c:bd:20:2e:db:85:56:45:94:
         ff:d1:8a:ed:ae:1f:e4:7e:19:06:11:5b:90:b0:a4:9b:ea:8a:
         db:8c:dd:85:f8:36:66:e9:23:bd:fc:e2:6c:de:be:e1:2b:fc:
         9b:98:36:05:c6:29:c7:a1:22:55:8f:51:12:1e:d6:7a:f9:2b:
         01:7b:29:63:44:4b:23:2e:38:96:f3:5e:4b:a4:fb:ce:5b:d6:
         c5:09:01:16:6c:0b:e9:89:58:31:1e:ea:5e:75:36:8c:2d:7b:
         c8:13:a5:9a:b3:c4:15:a5:70:e4:fd:b9:f3:ad:5b:e6:09:a0:
         f0:d5:21:8a:c8:35:7d:fe:03:91:39:1b:c9:9a:9f:de:ed:f6:
         ee:4d:aa:cf:da:b8:cc:d9:33:85:d6:e6:c0:dd:d2:64:93:9a:
         42:c4:c9:a2:6a:02:35:0c:92:a1:bf:db:4b:f3:ec:13:5e:bb:
         87:c4:fd:1b
-----BEGIN CERTIFICATE-----
MIIDRjCCAi6gAwIBAgIRAOQkfVpJEc6QwmwoyVamqFUwDQYJKoZIhvcNAQELBQAw
FTETMBEGA1UEAwwKTGF6YXJ1cyBDQTAeFw0xOTA0MDcwNjE0NDZaFw0yMjAzMjIw
NjE0NDZaMA8xDTALBgNVBAMMBGt5bGUwggEiMA0GCSqGSIb3DQEBAQUAA4IBDwAw
ggEKAoIBAQCiLmRI5Q4epavT08OrqhvGOwLPyXXY/RliatpPmjsGBtpFsNOjCQWJ
6P+/QgnFnPDgt3vFCezxInQpxOrx+LUIZAXd++TMUTP9vTudRWD6wofPpjxJRT5b
3YN71nwtfe4Cd+2UrLnoY+Q+RMfySCIuTQhmhJFfgVGkFASvE7wUQOewaiIcvQA3
tE6RF6tgOxDYvg1s4lqRyocdfAbdzkl1oEP841WFvLjH8B0x8BV55TBhVDX15n5O
QWcREJ5FDN+Pypgij5Am0POmSCDh1S/cQ3w/J4qH9Js+FL01/FUR18SUPjB1B9li
3mpmXiqqQObMsCG6w8TesNd/JkgHhHUhAgMBAAGjgZYwgZMwCQYDVR0TBAIwADAd
BgNVHQ4EFgQUBdtFpGuAIVGETdDl+Ii66ski5ZkwRQYDVR0jBD4wPIAUGX+VOvZo
Ygy/nZ7eTgWfcZArqlqhGaQXMBUxEzARBgNVBAMMCkxhemFydXMgQ0GCCQDq/w5k
9mef6TATBgNVHSUEDDAKBggrBgEFBQcDAjALBgNVHQ8EBAMCB4AwDQYJKoZIhvcN
AQELBQADggEBABP5uu94kkvgJDcxirD5ik7HPvJeXcny/QUaOrGbLeLbcHMLHnfq
709MsUBrfJtp+qQLTUE1eV3WgqeTH2ltuKZgYxtNPb1nevlg+2bQNQNgJCy9IC7b
hVZFlP/Riu2uH+R+GQYRW5CwpJvqituM3YX4NmbpI7384mzevuEr/JuYNgXGKceh
IlWPURIe1nr5KwF7KWNESyMuOJbzXkuk+85b1sUJARZsC+mJWDEe6l51Nowte8gT
pZqzxBWlcOT9ufOtW+YJoPDVIYrINX3+A5E5G8man97t9u5Nqs/auMzZM4XW5sDd
0mSTmkLEyaJqAjUMkqG/20vz7BNeu4fE/Rs=
-----END CERTIFICATE-----
