Certificate:
    Data:
        Version: 3 (0x2)
        Serial Number:
            9b:e6:42:d6:0e:0b:1a:5b:aa:fd:18:45:71:2c:3f:d1
    Signature Algorithm: sha256WithRSAEncryption
        Issuer: CN=Lazarus CA
        Validity
            Not Before: Apr  6 14:19:18 2019 GMT
            Not After : Mar 21 14:19:18 2022 GMT
        Subject: CN=test28
        Subject Public Key Info:
            Public Key Algorithm: rsaEncryption
                Public-Key: (2048 bit)
                Modulus:
                    00:be:4b:9b:ca:a4:7c:d9:80:0c:ee:2d:a5:b3:64:
                    1b:2d:65:f6:c8:c9:93:ea:29:11:9b:a7:7c:9e:05:
                    b8:70:3d:5d:88:cd:ed:ea:13:fa:ec:87:22:90:4b:
                    43:4c:6d:9e:28:cd:f2:1b:b5:6f:81:e8:a3:11:84:
                    3c:db:af:74:87:cb:b8:a2:3e:be:d8:49:f5:b1:21:
                    30:35:5d:f4:9e:a5:2c:76:fb:3f:e1:2c:8b:84:e9:
                    90:fe:c2:f2:19:3b:21:85:72:44:a4:af:49:68:c9:
                    09:66:21:bb:80:ee:6b:f7:a4:41:02:20:e8:00:cd:
                    2d:1d:72:f4:17:7f:06:cf:eb:4a:b6:6b:9c:1f:cb:
                    64:57:c5:79:d6:05:9e:e4:1f:40:d7:65:19:d7:c7:
                    35:d0:6b:7b:7e:d9:09:91:2c:0e:ea:18:5c:80:da:
                    b7:e9:2f:a6:b0:e7:2e:a5:07:5c:99:af:45:52:a7:
                    da:e2:38:a0:8f:c2:80:b5:d1:ac:71:b7:22:da:08:
                    9a:7e:18:c8:70:34:58:e1:62:af:ad:39:b5:bb:53:
                    22:40:2b:2f:fc:be:78:09:d6:78:f7:92:ba:54:3c:
                    bd:a8:c2:a7:d9:eb:f3:68:a8:57:04:5e:8f:cc:86:
                    c8:27:d5:9a:2d:e4:17:b9:36:c0:c7:dd:69:73:cb:
                    0e:4f
                Exponent: 65537 (0x10001)
        X509v3 extensions:
            X509v3 Basic Constraints: 
                CA:FALSE
            X509v3 Subject Key Identifier: 
                93:68:02:22:E9:08:A8:27:DC:45:AB:52:76:A1:C9:98:02:E6:98:73
            X509v3 Authority Key Identifier: 
                keyid:19:7F:95:3A:F6:68:62:0C:BF:9D:9E:DE:4E:05:9F:71:90:2B:AA:5A
                DirName:/CN=Lazarus CA
                serial:EA:FF:0E:64:F6:67:9F:E9

            X509v3 Extended Key Usage: 
                TLS Web Client Authentication
            X509v3 Key Usage: 
                Digital Signature
    Signature Algorithm: sha256WithRSAEncryption
         6a:88:ca:c2:86:cc:9e:0f:50:2a:b6:f6:be:88:66:f4:dc:a5:
         fd:2d:a5:ac:8d:12:aa:56:e8:45:fc:5e:ed:67:ed:4d:58:69:
         7f:cf:67:4a:cf:0a:41:d7:67:27:d7:da:36:4f:ab:4e:1c:7b:
         11:fe:a8:f3:70:16:61:7d:a4:c5:32:fd:75:be:bc:4e:ab:7c:
         df:4b:2c:a8:a5:30:51:22:a4:b4:ca:8f:f9:5b:22:57:48:1c:
         be:c9:00:0d:80:c8:de:ea:22:6c:07:27:24:c3:67:0a:93:fd:
         2e:a8:c1:5f:c8:ec:dd:2b:4d:fb:e1:6b:2a:d6:22:48:d3:f9:
         f1:d2:74:46:b3:73:3d:5f:bf:4c:85:cc:cd:2a:f3:75:c4:73:
         68:25:1d:a5:f1:f1:c9:10:91:96:85:8f:7e:1b:f1:94:64:90:
         0d:5a:0e:ce:30:52:95:0b:fa:c6:fa:32:dc:2b:26:4f:2a:c5:
         47:14:0c:aa:1b:8c:cb:2a:3f:a4:bd:2e:67:88:c8:5b:0d:68:
         37:bc:25:5d:02:fb:4c:f2:1a:b3:34:45:8a:b5:ca:39:cf:8c:
         94:b7:3e:3a:fd:9e:97:f5:b1:b9:10:c6:b7:a2:aa:48:69:5a:
         c3:7c:a7:60:81:14:8d:48:45:fd:9c:c6:c8:00:aa:76:af:60:
         31:b6:2c:78
-----BEGIN CERTIFICATE-----
MIIDSDCCAjCgAwIBAgIRAJvmQtYOCxpbqv0YRXEsP9EwDQYJKoZIhvcNAQELBQAw
FTETMBEGA1UEAwwKTGF6YXJ1cyBDQTAeFw0xOTA0MDYxNDE5MThaFw0yMjAzMjEx
NDE5MThaMBExDzANBgNVBAMMBnRlc3QyODCCASIwDQYJKoZIhvcNAQEBBQADggEP
ADCCAQoCggEBAL5Lm8qkfNmADO4tpbNkGy1l9sjJk+opEZunfJ4FuHA9XYjN7eoT
+uyHIpBLQ0xtnijN8hu1b4HooxGEPNuvdIfLuKI+vthJ9bEhMDVd9J6lLHb7P+Es
i4TpkP7C8hk7IYVyRKSvSWjJCWYhu4Dua/ekQQIg6ADNLR1y9Bd/Bs/rSrZrnB/L
ZFfFedYFnuQfQNdlGdfHNdBre37ZCZEsDuoYXIDat+kvprDnLqUHXJmvRVKn2uI4
oI/CgLXRrHG3ItoImn4YyHA0WOFir605tbtTIkArL/y+eAnWePeSulQ8vajCp9nr
82ioVwRej8yGyCfVmi3kF7k2wMfdaXPLDk8CAwEAAaOBljCBkzAJBgNVHRMEAjAA
MB0GA1UdDgQWBBSTaAIi6QioJ9xFq1J2ocmYAuaYczBFBgNVHSMEPjA8gBQZf5U6
9mhiDL+dnt5OBZ9xkCuqWqEZpBcwFTETMBEGA1UEAwwKTGF6YXJ1cyBDQYIJAOr/
DmT2Z5/pMBMGA1UdJQQMMAoGCCsGAQUFBwMCMAsGA1UdDwQEAwIHgDANBgkqhkiG
9w0BAQsFAAOCAQEAaojKwobMng9QKrb2vohm9Nyl/S2lrI0SqlboRfxe7WftTVhp
f89nSs8KQddnJ9faNk+rThx7Ef6o83AWYX2kxTL9db68Tqt830ssqKUwUSKktMqP
+VsiV0gcvskADYDI3uoibAcnJMNnCpP9LqjBX8js3StN++FrKtYiSNP58dJ0RrNz
PV+/TIXMzSrzdcRzaCUdpfHxyRCRloWPfhvxlGSQDVoOzjBSlQv6xvoy3CsmTyrF
RxQMqhuMyyo/pL0uZ4jIWw1oN7wlXQL7TPIaszRFirXKOc+MlLc+Ov2el/WxuRDG
t6KqSGlaw3ynYIEUjUhF/ZzGyACqdq9gMbYseA==
-----END CERTIFICATE-----
