Certificate:
    Data:
        Version: 3 (0x2)
        Serial Number:
            30:f3:c6:a4:8d:86:3b:a6:a6:d8:97:82:ef:01:ee:c8
    Signature Algorithm: sha256WithRSAEncryption
        Issuer: CN=Lazarus CA
        Validity
            Not Before: Apr  6 14:12:46 2019 GMT
            Not After : Mar 21 14:12:46 2022 GMT
        Subject: CN=test17
        Subject Public Key Info:
            Public Key Algorithm: rsaEncryption
                Public-Key: (2048 bit)
                Modulus:
                    00:e9:ed:a3:26:e5:95:6e:51:fe:ed:4f:70:40:77:
                    04:15:ca:32:b2:12:1b:ce:4a:e1:66:72:37:5c:63:
                    24:95:42:f6:31:dd:cd:6e:43:02:fc:57:d8:26:29:
                    2d:1e:b4:42:9e:dd:6f:27:a2:fe:d7:54:be:3b:be:
                    d2:de:1e:19:38:27:c5:5f:70:91:c0:10:83:67:90:
                    5b:19:13:fe:bd:1d:4b:59:fc:a2:66:6c:66:56:de:
                    75:6d:f6:ac:5e:2d:7c:4d:4c:26:58:94:0b:09:1d:
                    dc:ed:51:a7:43:1e:81:ee:d1:3e:74:30:ab:60:d5:
                    d8:18:96:79:f7:a4:48:30:74:3b:71:3e:fa:68:05:
                    7e:bd:74:a2:ae:5d:f4:c5:38:54:e7:ec:6f:d4:f2:
                    23:ec:73:07:13:e9:10:1d:92:80:90:81:3e:e1:5f:
                    08:98:99:b6:40:b0:15:78:08:17:0b:24:d1:14:f5:
                    96:00:c9:18:3e:63:f6:25:fa:b6:4c:7f:03:bb:63:
                    e6:54:14:08:32:fe:8a:35:04:47:02:7c:bb:ec:d6:
                    dd:f1:fc:0b:3a:4c:38:78:3a:0e:50:08:10:9d:7e:
                    db:41:c6:1b:0b:89:98:8f:04:10:72:44:15:e6:f0:
                    c3:44:ac:1d:0c:cf:62:5a:a1:c0:7b:6b:4b:33:e9:
                    2a:df
                Exponent: 65537 (0x10001)
        X509v3 extensions:
            X509v3 Basic Constraints: 
                CA:FALSE
            X509v3 Subject Key Identifier: 
                85:2A:3A:48:0C:2F:04:44:F2:36:17:CE:E1:14:5C:D8:9F:D7:A6:46
            X509v3 Authority Key Identifier: 
                keyid:19:7F:95:3A:F6:68:62:0C:BF:9D:9E:DE:4E:05:9F:71:90:2B:AA:5A
                DirName:/CN=Lazarus CA
                serial:EA:FF:0E:64:F6:67:9F:E9

            X509v3 Extended Key Usage: 
                TLS Web Client Authentication
            X509v3 Key Usage: 
                Digital Signature
    Signature Algorithm: sha256WithRSAEncryption
         b8:07:2c:17:05:ae:a2:49:5b:8d:c6:06:fc:81:5f:ea:0f:ee:
         22:d9:35:d6:f0:2a:d1:7a:70:f7:d8:bc:8d:7d:36:8f:a0:69:
         ea:44:65:76:fc:bc:55:35:5b:33:65:f1:61:a8:6e:67:ed:3a:
         ce:0a:b5:0a:9f:e7:f0:e1:c0:66:5e:30:89:95:4f:87:63:04:
         a6:ae:7f:cb:7b:cb:37:15:be:10:a7:ac:83:8f:8d:09:a6:e5:
         b8:50:15:99:aa:32:86:db:81:1d:95:21:93:2d:61:68:87:3a:
         c8:f1:6b:5a:6d:d8:a1:12:64:0c:b7:b3:53:06:99:9d:6b:db:
         3c:ab:29:e4:d1:fa:8e:7d:d1:f9:bb:3c:be:c3:43:2c:1f:86:
         1c:0c:5a:5f:d9:22:64:12:79:d2:2a:c5:b6:4c:2d:a7:df:66:
         5e:81:7a:41:8f:19:c6:4a:61:c5:d3:8b:2b:5e:88:03:6f:ed:
         51:72:da:47:61:f0:0e:96:8c:1f:82:1d:72:61:ab:1d:52:b2:
         e9:e7:01:66:64:31:06:73:db:35:04:f4:7d:56:3b:69:d7:46:
         a0:20:ea:43:18:7b:2c:07:e5:48:65:3f:df:6a:f8:78:23:f9:
         f9:50:32:b7:59:a3:bd:83:19:d3:8f:10:64:8d:ea:11:26:6d:
         78:be:8c:37
-----BEGIN CERTIFICATE-----
MIIDRzCCAi+gAwIBAgIQMPPGpI2GO6am2JeC7wHuyDANBgkqhkiG9w0BAQsFADAV
MRMwEQYDVQQDDApMYXphcnVzIENBMB4XDTE5MDQwNjE0MTI0NloXDTIyMDMyMTE0
MTI0NlowETEPMA0GA1UEAwwGdGVzdDE3MIIBIjANBgkqhkiG9w0BAQEFAAOCAQ8A
MIIBCgKCAQEA6e2jJuWVblH+7U9wQHcEFcoyshIbzkrhZnI3XGMklUL2Md3NbkMC
/FfYJiktHrRCnt1vJ6L+11S+O77S3h4ZOCfFX3CRwBCDZ5BbGRP+vR1LWfyiZmxm
Vt51bfasXi18TUwmWJQLCR3c7VGnQx6B7tE+dDCrYNXYGJZ596RIMHQ7cT76aAV+
vXSirl30xThU5+xv1PIj7HMHE+kQHZKAkIE+4V8ImJm2QLAVeAgXCyTRFPWWAMkY
PmP2Jfq2TH8Du2PmVBQIMv6KNQRHAny77Nbd8fwLOkw4eDoOUAgQnX7bQcYbC4mY
jwQQckQV5vDDRKwdDM9iWqHAe2tLM+kq3wIDAQABo4GWMIGTMAkGA1UdEwQCMAAw
HQYDVR0OBBYEFIUqOkgMLwRE8jYXzuEUXNif16ZGMEUGA1UdIwQ+MDyAFBl/lTr2
aGIMv52e3k4Fn3GQK6paoRmkFzAVMRMwEQYDVQQDDApMYXphcnVzIENBggkA6v8O
ZPZnn+kwEwYDVR0lBAwwCgYIKwYBBQUHAwIwCwYDVR0PBAQDAgeAMA0GCSqGSIb3
DQEBCwUAA4IBAQC4BywXBa6iSVuNxgb8gV/qD+4i2TXW8CrRenD32LyNfTaPoGnq
RGV2/LxVNVszZfFhqG5n7TrOCrUKn+fw4cBmXjCJlU+HYwSmrn/Le8s3Fb4Qp6yD
j40JpuW4UBWZqjKG24EdlSGTLWFohzrI8WtabdihEmQMt7NTBpmda9s8qynk0fqO
fdH5uzy+w0MsH4YcDFpf2SJkEnnSKsW2TC2n32ZegXpBjxnGSmHF04srXogDb+1R
ctpHYfAOlowfgh1yYasdUrLp5wFmZDEGc9s1BPR9Vjtp10agIOpDGHssB+VIZT/f
avh4I/n5UDK3WaO9gxnTjxBkjeoRJm14vow3
-----END CERTIFICATE-----
