Certificate:
    Data:
        Version: 3 (0x2)
        Serial Number:
            64:e2:35:44:27:5b:91:e8:00:95:a6:9d:32:a6:3f:f8
    Signature Algorithm: sha256WithRSAEncryption
        Issuer: CN=Lazarus CA
        Validity
            Not Before: Apr  6 14:04:33 2019 GMT
            Not After : Mar 21 14:04:33 2022 GMT
        Subject: CN=test14
        Subject Public Key Info:
            Public Key Algorithm: rsaEncryption
                Public-Key: (2048 bit)
                Modulus:
                    00:ba:93:dc:73:b4:c8:08:a0:2e:6d:1a:99:af:89:
                    bb:0f:a7:d6:cc:26:c6:1e:af:75:51:d2:0e:9f:88:
                    99:bb:85:af:bb:f6:0b:81:6f:be:42:54:ba:c4:7d:
                    10:a8:9d:26:15:f0:1d:b2:5b:70:43:7e:26:dd:65:
                    b8:d1:e9:60:28:0c:c2:e7:19:cb:bd:b8:8f:9d:2b:
                    88:2a:36:77:b2:bd:65:03:76:42:06:42:fe:4d:b9:
                    c5:d0:31:6a:82:2a:57:b1:d5:a0:f7:be:b1:bd:4a:
                    fb:60:16:6a:f0:5d:2d:d1:d1:62:52:60:46:fd:de:
                    c3:39:b3:6a:25:34:a5:a8:0d:88:86:9a:2a:8b:ab:
                    a0:8e:07:40:f6:99:9c:10:da:83:3d:07:05:c7:26:
                    ca:71:bb:0d:88:57:92:4c:cc:fa:b5:61:33:7c:90:
                    32:3d:65:c9:2a:ad:8f:fa:55:09:44:63:c9:6d:8f:
                    6d:89:0c:f5:a6:b5:fc:33:51:b4:c7:a7:05:72:32:
                    a0:0b:94:ca:53:d0:74:5e:ad:06:80:cf:c5:a2:c8:
                    49:f1:cf:37:06:49:5c:28:d7:1d:59:38:b3:a8:63:
                    42:64:6b:fa:50:29:4a:83:8b:b9:bb:73:17:26:10:
                    ca:8f:ce:b8:80:fd:7f:55:e7:8e:bf:34:79:d5:cc:
                    0b:4f
                Exponent: 65537 (0x10001)
        X509v3 extensions:
            X509v3 Basic Constraints: 
                CA:FALSE
            X509v3 Subject Key Identifier: 
                61:B5:CD:E8:68:50:C6:EF:AD:65:EE:25:82:B3:99:28:66:C6:B3:CE
            X509v3 Authority Key Identifier: 
                keyid:19:7F:95:3A:F6:68:62:0C:BF:9D:9E:DE:4E:05:9F:71:90:2B:AA:5A
                DirName:/CN=Lazarus CA
                serial:EA:FF:0E:64:F6:67:9F:E9

            X509v3 Extended Key Usage: 
                TLS Web Client Authentication
            X509v3 Key Usage: 
                Digital Signature
    Signature Algorithm: sha256WithRSAEncryption
         6b:28:ed:5a:81:5d:df:38:42:17:71:bb:2b:04:aa:7e:2b:2e:
         be:64:be:e4:06:86:19:87:68:89:77:f5:09:ff:9b:ad:90:10:
         e7:72:9b:57:ce:d8:fa:c2:06:a5:d2:77:8e:ae:13:8e:2a:fa:
         32:48:ec:fa:c1:7e:06:4c:79:f2:c9:68:52:a0:71:e6:f1:04:
         49:38:28:c8:97:d6:aa:51:f8:64:a7:b8:2c:8d:80:2c:79:f5:
         69:34:80:51:7a:3d:c6:33:79:c6:e4:a5:d1:ef:e5:24:f2:93:
         c0:dc:50:78:dd:cb:ed:32:02:7d:71:9f:b4:af:37:64:da:29:
         3b:00:ed:a7:90:e9:d0:d3:50:b6:e2:16:53:74:10:c9:84:38:
         f6:f2:5b:61:bc:6b:31:e9:18:af:77:52:91:92:42:89:21:a3:
         7f:bc:e1:7a:8d:21:c7:13:75:06:8b:0d:c4:4b:fd:27:bf:a4:
         51:7c:7f:0d:d1:67:07:88:b6:8a:a5:92:09:58:11:d5:10:f3:
         a9:ce:e4:13:f1:00:a4:a0:47:75:cc:e6:30:ba:9b:26:f0:04:
         6b:b2:3d:69:3f:a4:7f:49:df:eb:b4:6f:57:80:2c:c6:b6:15:
         21:03:4a:32:1a:b5:dd:35:97:fd:c1:d7:89:45:79:a6:21:bd:
         a7:85:5f:8e
-----BEGIN CERTIFICATE-----
MIIDRzCCAi+gAwIBAgIQZOI1RCdbkegAlaadMqY/+DANBgkqhkiG9w0BAQsFADAV
MRMwEQYDVQQDDApMYXphcnVzIENBMB4XDTE5MDQwNjE0MDQzM1oXDTIyMDMyMTE0
MDQzM1owETEPMA0GA1UEAwwGdGVzdDE0MIIBIjANBgkqhkiG9w0BAQEFAAOCAQ8A
MIIBCgKCAQEAupPcc7TICKAubRqZr4m7D6fWzCbGHq91UdIOn4iZu4Wvu/YLgW++
QlS6xH0QqJ0mFfAdsltwQ34m3WW40elgKAzC5xnLvbiPnSuIKjZ3sr1lA3ZCBkL+
TbnF0DFqgipXsdWg976xvUr7YBZq8F0t0dFiUmBG/d7DObNqJTSlqA2Ihpoqi6ug
jgdA9pmcENqDPQcFxybKcbsNiFeSTMz6tWEzfJAyPWXJKq2P+lUJRGPJbY9tiQz1
prX8M1G0x6cFcjKgC5TKU9B0Xq0GgM/FoshJ8c83BklcKNcdWTizqGNCZGv6UClK
g4u5u3MXJhDKj864gP1/VeeOvzR51cwLTwIDAQABo4GWMIGTMAkGA1UdEwQCMAAw
HQYDVR0OBBYEFGG1zehoUMbvrWXuJYKzmShmxrPOMEUGA1UdIwQ+MDyAFBl/lTr2
aGIMv52e3k4Fn3GQK6paoRmkFzAVMRMwEQYDVQQDDApMYXphcnVzIENBggkA6v8O
ZPZnn+kwEwYDVR0lBAwwCgYIKwYBBQUHAwIwCwYDVR0PBAQDAgeAMA0GCSqGSIb3
DQEBCwUAA4IBAQBrKO1agV3fOEIXcbsrBKp+Ky6+ZL7kBoYZh2iJd/UJ/5utkBDn
cptXztj6wgal0neOrhOOKvoySOz6wX4GTHnyyWhSoHHm8QRJOCjIl9aqUfhkp7gs
jYAsefVpNIBRej3GM3nG5KXR7+Uk8pPA3FB43cvtMgJ9cZ+0rzdk2ik7AO2nkOnQ
01C24hZTdBDJhDj28lthvGsx6Rivd1KRkkKJIaN/vOF6jSHHE3UGiw3ES/0nv6RR
fH8N0WcHiLaKpZIJWBHVEPOpzuQT8QCkoEd1zOYwupsm8ARrsj1pP6R/Sd/rtG9X
gCzGthUhA0oyGrXdNZf9wdeJRXmmIb2nhV+O
-----END CERTIFICATE-----
