Certificate:
    Data:
        Version: 3 (0x2)
        Serial Number:
            bc:b8:d7:e2:dc:a6:26:cf:7a:49:33:97:bc:f8:56:a0
    Signature Algorithm: sha256WithRSAEncryption
        Issuer: CN=Lazarus CA
        Validity
            Not Before: Apr  6 14:42:47 2019 GMT
            Not After : Mar 21 14:42:47 2022 GMT
        Subject: CN=test29
        Subject Public Key Info:
            Public Key Algorithm: rsaEncryption
                Public-Key: (2048 bit)
                Modulus:
                    00:b6:ce:af:9a:db:ee:49:a6:ca:31:fb:9d:8d:93:
                    68:19:cb:de:a3:11:65:2c:a4:20:39:36:d7:63:8d:
                    4b:55:e4:09:4f:6e:55:ca:1b:24:f4:52:5f:bd:37:
                    04:5d:03:5a:2a:98:51:2f:f6:3a:fc:0a:5e:62:3e:
                    16:93:59:76:9d:93:19:b5:8a:8c:f0:85:5f:16:57:
                    8b:7d:73:6d:39:b4:8c:91:e6:4e:07:71:59:69:ea:
                    82:f8:a6:24:dd:41:df:5c:9a:5b:00:6e:88:12:f0:
                    c6:f3:d7:cf:81:2f:87:d9:54:0a:47:2a:8a:66:9f:
                    3f:b5:ea:4c:d2:87:be:cd:30:bf:77:d4:88:83:2b:
                    fb:38:3f:0a:20:a2:58:d0:48:45:8b:0a:f1:5c:2a:
                    35:35:32:3b:5a:97:ef:13:90:0f:6c:a6:cd:34:6e:
                    0e:79:23:53:6f:37:e4:9f:1b:a3:be:34:ad:4c:17:
                    0b:8a:b6:64:02:ab:65:57:07:cc:ef:8c:77:ac:74:
                    07:df:ae:1e:d6:4c:46:e5:e1:da:52:fa:5b:00:df:
                    95:7b:a7:e6:2a:ef:f0:1e:c1:18:98:ae:b0:25:9c:
                    15:2c:4e:49:d6:b8:3a:d7:db:3d:ab:4d:75:7d:87:
                    a5:c5:9f:2f:3a:b8:df:cc:4c:66:06:1b:1d:96:bb:
                    e4:fd
                Exponent: 65537 (0x10001)
        X509v3 extensions:
            X509v3 Basic Constraints: 
                CA:FALSE
            X509v3 Subject Key Identifier: 
                38:4D:44:B9:CC:CB:D2:5B:72:2B:21:8D:BA:9C:81:91:CB:95:FB:8D
            X509v3 Authority Key Identifier: 
                keyid:19:7F:95:3A:F6:68:62:0C:BF:9D:9E:DE:4E:05:9F:71:90:2B:AA:5A
                DirName:/CN=Lazarus CA
                serial:EA:FF:0E:64:F6:67:9F:E9

            X509v3 Extended Key Usage: 
                TLS Web Client Authentication
            X509v3 Key Usage: 
                Digital Signature
    Signature Algorithm: sha256WithRSAEncryption
         09:3f:ad:7b:98:57:1e:6d:75:63:a3:d3:0b:b6:97:4d:74:24:
         a7:c4:a5:f2:ee:38:4d:88:01:d0:c7:e8:09:cc:d9:f4:5d:bc:
         24:b3:1b:e7:f4:30:20:d7:e9:9f:0b:b0:ca:8d:3d:64:73:af:
         e6:95:39:42:e5:0e:d7:7a:5d:79:ee:0c:d0:00:06:b9:b6:2b:
         a9:5c:2d:99:60:98:9f:fd:d0:16:5f:e3:8c:7b:4f:e2:9b:c2:
         70:82:5e:69:ed:61:11:25:f1:9d:4e:34:18:71:c1:ba:89:1f:
         17:ea:0b:e6:90:e7:8b:8e:b9:62:f2:6d:ca:0e:c9:b5:1d:6f:
         d4:3f:06:72:dc:81:d1:80:89:57:47:bf:bc:98:e7:19:7d:22:
         da:1b:38:0b:18:70:9e:ab:2f:91:78:26:8b:b5:9b:28:81:08:
         1e:bd:a0:3a:96:46:7d:76:55:4c:3b:98:16:6d:0e:98:12:28:
         65:db:2c:7f:35:ff:5c:be:6c:5e:cb:e6:60:6e:18:cc:81:30:
         d7:4c:31:a8:f1:79:5c:58:2b:45:4b:0c:96:a1:dc:21:52:55:
         28:5f:55:83:93:62:06:26:0b:8f:bb:f3:d7:a7:bd:34:09:76:
         58:4f:28:b2:70:b8:ad:1f:52:26:87:38:02:a9:42:be:27:6c:
         87:a6:43:56
-----BEGIN CERTIFICATE-----
MIIDSDCCAjCgAwIBAgIRALy41+LcpibPekkzl7z4VqAwDQYJKoZIhvcNAQELBQAw
FTETMBEGA1UEAwwKTGF6YXJ1cyBDQTAeFw0xOTA0MDYxNDQyNDdaFw0yMjAzMjEx
NDQyNDdaMBExDzANBgNVBAMMBnRlc3QyOTCCASIwDQYJKoZIhvcNAQEBBQADggEP
ADCCAQoCggEBALbOr5rb7kmmyjH7nY2TaBnL3qMRZSykIDk212ONS1XkCU9uVcob
JPRSX703BF0DWiqYUS/2OvwKXmI+FpNZdp2TGbWKjPCFXxZXi31zbTm0jJHmTgdx
WWnqgvimJN1B31yaWwBuiBLwxvPXz4Evh9lUCkcqimafP7XqTNKHvs0wv3fUiIMr
+zg/CiCiWNBIRYsK8VwqNTUyO1qX7xOQD2ymzTRuDnkjU2835J8bo740rUwXC4q2
ZAKrZVcHzO+Md6x0B9+uHtZMRuXh2lL6WwDflXun5irv8B7BGJiusCWcFSxOSda4
OtfbPatNdX2HpcWfLzq438xMZgYbHZa75P0CAwEAAaOBljCBkzAJBgNVHRMEAjAA
MB0GA1UdDgQWBBQ4TUS5zMvSW3IrIY26nIGRy5X7jTBFBgNVHSMEPjA8gBQZf5U6
9mhiDL+dnt5OBZ9xkCuqWqEZpBcwFTETMBEGA1UEAwwKTGF6YXJ1cyBDQYIJAOr/
DmT2Z5/pMBMGA1UdJQQMMAoGCCsGAQUFBwMCMAsGA1UdDwQEAwIHgDANBgkqhkiG
9w0BAQsFAAOCAQEACT+te5hXHm11Y6PTC7aXTXQkp8Sl8u44TYgB0MfoCczZ9F28
JLMb5/QwINfpnwuwyo09ZHOv5pU5QuUO13pdee4M0AAGubYrqVwtmWCYn/3QFl/j
jHtP4pvCcIJeae1hESXxnU40GHHBuokfF+oL5pDni465YvJtyg7JtR1v1D8GctyB
0YCJV0e/vJjnGX0i2hs4CxhwnqsvkXgmi7WbKIEIHr2gOpZGfXZVTDuYFm0OmBIo
ZdssfzX/XL5sXsvmYG4YzIEw10wxqPF5XFgrRUsMlqHcIVJVKF9Vg5NiBiYLj7vz
16e9NAl2WE8osnC4rR9SJoc4AqlCvidsh6ZDVg==
-----END CERTIFICATE-----
