Certificate:
    Data:
        Version: 3 (0x2)
        Serial Number:
            1f:89:1a:27:96:62:c5:a5:04:39:db:91:33:8e:7a:47
    Signature Algorithm: sha256WithRSAEncryption
        Issuer: CN=Lazarus CA
        Validity
            Not Before: Apr  6 14:15:58 2019 GMT
            Not After : Mar 21 14:15:58 2022 GMT
        Subject: CN=test21
        Subject Public Key Info:
            Public Key Algorithm: rsaEncryption
                Public-Key: (2048 bit)
                Modulus:
                    00:c0:2e:83:b9:5d:d7:ae:1e:03:d8:f0:bd:b1:7b:
                    04:05:7f:8b:1a:9c:25:c5:38:b2:b9:59:fe:2f:43:
                    c1:0e:c1:33:39:f3:a2:e3:4b:94:8f:c9:18:d6:f8:
                    ed:15:87:a6:4f:ff:bf:28:27:86:f9:bf:c3:14:3e:
                    62:42:38:62:e5:eb:c7:8f:f7:f1:ed:65:eb:8e:71:
                    14:ff:fd:16:a3:8e:25:95:0c:a8:3a:86:39:0e:be:
                    00:23:b7:c7:fa:0f:9c:be:03:f6:df:dc:1c:b7:bc:
                    3a:d6:94:24:4f:e5:a6:1d:e1:86:27:ab:e1:82:4d:
                    3a:55:e6:e5:19:83:53:c4:c4:fa:ab:39:40:c0:cb:
                    71:d1:8a:6c:22:27:e1:79:d5:6a:0f:a0:05:af:ee:
                    1c:11:1f:ab:dc:7b:88:6f:31:b2:a4:58:b0:be:ea:
                    63:04:8d:23:97:77:43:c9:a4:a4:06:8e:85:13:23:
                    e0:be:94:55:9d:dc:00:75:6b:f7:bf:12:db:30:fe:
                    16:ad:12:7d:e4:8e:d1:69:70:ec:79:c5:ea:8c:da:
                    03:ef:9d:9b:f9:b9:4e:24:52:0c:95:ea:3d:3d:06:
                    ea:88:c6:c9:52:4c:89:15:98:35:57:56:53:16:42:
                    f3:f2:45:11:bf:5a:80:d7:76:01:65:b0:fc:5d:32:
                    c2:c3
                Exponent: 65537 (0x10001)
        X509v3 extensions:
            X509v3 Basic Constraints: 
                CA:FALSE
            X509v3 Subject Key Identifier: 
                C8:B2:00:17:10:F7:F1:F3:06:EB:95:2F:1A:FF:92:43:88:4A:DB:F2
            X509v3 Authority Key Identifier: 
                keyid:19:7F:95:3A:F6:68:62:0C:BF:9D:9E:DE:4E:05:9F:71:90:2B:AA:5A
                DirName:/CN=Lazarus CA
                serial:EA:FF:0E:64:F6:67:9F:E9

            X509v3 Extended Key Usage: 
                TLS Web Client Authentication
            X509v3 Key Usage: 
                Digital Signature
    Signature Algorithm: sha256WithRSAEncryption
         3b:c6:4e:c6:4c:63:85:10:be:4a:6e:04:40:87:67:52:16:3d:
         14:f7:e5:ec:c4:63:75:a0:c3:2d:24:00:a1:a9:af:c1:90:4a:
         1b:9b:88:c6:ef:92:a9:06:84:bb:8e:02:c0:6a:3f:11:36:1a:
         ae:1d:dd:66:a9:a2:a2:b0:aa:df:60:e3:e6:ad:6d:4c:38:ae:
         05:c5:04:95:08:2e:19:b2:ad:f4:be:73:f6:b7:5f:f8:69:7d:
         c6:0f:dc:0b:18:ad:9b:df:61:d7:06:a5:f9:25:28:1a:90:09:
         0f:21:4e:ec:b6:7e:df:59:92:69:9b:22:6a:ce:bb:13:8b:34:
         8b:75:0c:2e:62:d4:d0:96:5c:3f:25:04:1b:a6:af:ea:3c:72:
         06:01:2b:e0:8e:fc:bc:4b:b9:f9:12:de:99:6a:8c:9b:a0:a8:
         74:ad:73:a7:21:f3:8a:e4:70:2e:2c:36:56:b7:e9:a1:fe:1c:
         57:80:09:d9:25:38:35:15:82:61:66:1d:ec:64:8e:44:3b:4a:
         35:8e:54:4f:b5:2b:0d:9e:cd:3b:4e:aa:33:39:b3:c2:00:e2:
         67:3c:61:88:2f:6a:d9:4c:e0:2d:20:93:a7:16:de:2a:56:f1:
         65:b8:d8:f5:6b:c7:03:f9:5c:3b:c3:d1:00:54:68:d1:fa:21:
         40:8f:4b:ea
-----BEGIN CERTIFICATE-----
MIIDRzCCAi+gAwIBAgIQH4kaJ5ZixaUEOduRM456RzANBgkqhkiG9w0BAQsFADAV
MRMwEQYDVQQDDApMYXphcnVzIENBMB4XDTE5MDQwNjE0MTU1OFoXDTIyMDMyMTE0
MTU1OFowETEPMA0GA1UEAwwGdGVzdDIxMIIBIjANBgkqhkiG9w0BAQEFAAOCAQ8A
MIIBCgKCAQEAwC6DuV3Xrh4D2PC9sXsEBX+LGpwlxTiyuVn+L0PBDsEzOfOi40uU
j8kY1vjtFYemT/+/KCeG+b/DFD5iQjhi5evHj/fx7WXrjnEU//0Wo44llQyoOoY5
Dr4AI7fH+g+cvgP239wct7w61pQkT+WmHeGGJ6vhgk06VeblGYNTxMT6qzlAwMtx
0YpsIifhedVqD6AFr+4cER+r3HuIbzGypFiwvupjBI0jl3dDyaSkBo6FEyPgvpRV
ndwAdWv3vxLbMP4WrRJ95I7RaXDsecXqjNoD752b+blOJFIMleo9PQbqiMbJUkyJ
FZg1V1ZTFkLz8kURv1qA13YBZbD8XTLCwwIDAQABo4GWMIGTMAkGA1UdEwQCMAAw
HQYDVR0OBBYEFMiyABcQ9/HzBuuVLxr/kkOIStvyMEUGA1UdIwQ+MDyAFBl/lTr2
aGIMv52e3k4Fn3GQK6paoRmkFzAVMRMwEQYDVQQDDApMYXphcnVzIENBggkA6v8O
ZPZnn+kwEwYDVR0lBAwwCgYIKwYBBQUHAwIwCwYDVR0PBAQDAgeAMA0GCSqGSIb3
DQEBCwUAA4IBAQA7xk7GTGOFEL5KbgRAh2dSFj0U9+XsxGN1oMMtJAChqa/BkEob
m4jG75KpBoS7jgLAaj8RNhquHd1mqaKisKrfYOPmrW1MOK4FxQSVCC4Zsq30vnP2
t1/4aX3GD9wLGK2b32HXBqX5JSgakAkPIU7stn7fWZJpmyJqzrsTizSLdQwuYtTQ
llw/JQQbpq/qPHIGASvgjvy8S7n5Et6ZaoyboKh0rXOnIfOK5HAuLDZWt+mh/hxX
gAnZJTg1FYJhZh3sZI5EO0o1jlRPtSsNns07TqozObPCAOJnPGGIL2rZTOAtIJOn
Ft4qVvFluNj1a8cD+Vw7w9EAVGjR+iFAj0vq
-----END CERTIFICATE-----
