Certificate:
    Data:
        Version: 3 (0x2)
        Serial Number:
            0d:71:8c:42:77:04:4c:4c:e8:13:f8:f7:89:40:2e:ea
    Signature Algorithm: sha256WithRSAEncryption
        Issuer: CN=Lazarus CA
        Validity
            Not Before: Apr  6 14:13:19 2019 GMT
            Not After : Mar 21 14:13:19 2022 GMT
        Subject: CN=test19
        Subject Public Key Info:
            Public Key Algorithm: rsaEncryption
                Public-Key: (2048 bit)
                Modulus:
                    00:b0:44:7d:ef:0e:7d:68:a3:5f:c1:99:5c:05:ee:
                    7c:74:36:96:d3:cd:fd:82:e6:b5:8a:d7:03:dd:fa:
                    be:97:13:fc:64:b7:e3:71:53:3c:31:82:63:d4:c9:
                    3c:ea:97:b0:1c:b3:9d:69:33:19:72:18:cb:8e:19:
                    d8:59:72:ed:ec:25:75:98:e3:e4:44:e4:cd:74:43:
                    d6:ff:0f:d7:1f:a9:95:32:84:c7:49:79:2e:e7:99:
                    db:ec:5f:a2:0d:d9:5e:e0:72:44:36:fc:9f:f5:10:
                    c8:7b:a7:68:5b:5f:d4:59:b0:ba:b3:36:aa:98:73:
                    57:5c:68:53:ba:c2:dc:87:80:1e:56:1d:be:a8:a2:
                    a3:fd:7b:41:6b:e6:44:5d:dd:13:4c:64:96:6b:f9:
                    b2:e6:27:a7:7b:0f:61:2d:3b:41:4a:c1:61:0f:ba:
                    13:58:8a:8e:1f:6a:8f:d3:b3:99:bb:0f:5c:c3:4f:
                    a9:e9:41:2e:92:c2:89:6a:cb:50:b3:b3:02:3c:be:
                    b5:4a:30:b5:a9:ff:a5:8f:25:6b:e5:50:14:c6:4b:
                    8e:b9:a6:9b:d0:8c:fe:c1:ba:33:45:f6:1c:a0:66:
                    bb:7b:87:08:3b:d3:5c:20:c7:c9:d1:24:01:25:01:
                    c7:4a:e3:79:19:fc:d4:6c:60:f6:21:ee:66:95:f7:
                    82:fb
                Exponent: 65537 (0x10001)
        X509v3 extensions:
            X509v3 Basic Constraints: 
                CA:FALSE
            X509v3 Subject Key Identifier: 
                CE:A0:C6:7D:ED:BE:90:D7:9D:A1:20:F7:A1:EC:38:2D:BB:77:4C:13
            X509v3 Authority Key Identifier: 
                keyid:19:7F:95:3A:F6:68:62:0C:BF:9D:9E:DE:4E:05:9F:71:90:2B:AA:5A
                DirName:/CN=Lazarus CA
                serial:EA:FF:0E:64:F6:67:9F:E9

            X509v3 Extended Key Usage: 
                TLS Web Client Authentication
            X509v3 Key Usage: 
                Digital Signature
    Signature Algorithm: sha256WithRSAEncryption
         25:e5:3c:49:c6:d1:dd:c7:1a:63:7b:3c:90:61:bb:d0:94:73:
         2e:e0:8c:48:68:9c:d3:5d:55:84:de:3d:bd:36:33:c7:01:96:
         1b:86:77:2f:26:96:4d:46:35:54:08:68:2f:84:ee:bc:54:62:
         48:0e:dd:f5:79:17:74:39:79:12:ee:7e:69:90:65:c2:fb:ba:
         77:24:57:41:04:fb:31:3c:ad:a8:34:32:51:e9:8b:7e:07:7e:
         9e:da:15:27:3f:f1:48:8a:86:15:c1:30:05:3d:61:21:1f:45:
         fa:71:0e:cd:80:b7:c0:59:cd:ec:29:65:ce:5c:65:e8:09:23:
         10:84:bf:e2:5e:31:91:86:08:f3:2d:af:75:63:ba:8b:72:fe:
         5f:44:2c:1e:aa:a7:6f:6f:fd:e9:43:5b:c5:8e:84:7d:ff:0d:
         89:f3:92:20:a3:59:a6:70:26:8d:53:40:74:2f:31:2d:c2:7c:
         92:3f:fa:c2:6b:5a:9b:72:17:61:bb:7c:bc:95:76:c6:e8:86:
         75:c0:81:b8:1c:cf:74:38:af:ea:32:08:f7:83:d8:0e:1e:5b:
         f2:4e:24:3b:58:47:48:35:91:ce:74:a9:8d:7f:e1:2d:d3:e3:
         b8:14:ce:16:8a:ad:e8:28:cf:2c:d4:09:23:e5:97:11:97:58:
         0f:8a:df:4e
-----BEGIN CERTIFICATE-----
MIIDRzCCAi+gAwIBAgIQDXGMQncETEzoE/j3iUAu6jANBgkqhkiG9w0BAQsFADAV
MRMwEQYDVQQDDApMYXphcnVzIENBMB4XDTE5MDQwNjE0MTMxOVoXDTIyMDMyMTE0
MTMxOVowETEPMA0GA1UEAwwGdGVzdDE5MIIBIjANBgkqhkiG9w0BAQEFAAOCAQ8A
MIIBCgKCAQEAsER97w59aKNfwZlcBe58dDaW0839gua1itcD3fq+lxP8ZLfjcVM8
MYJj1Mk86pewHLOdaTMZchjLjhnYWXLt7CV1mOPkROTNdEPW/w/XH6mVMoTHSXku
55nb7F+iDdle4HJENvyf9RDIe6doW1/UWbC6szaqmHNXXGhTusLch4AeVh2+qKKj
/XtBa+ZEXd0TTGSWa/my5ienew9hLTtBSsFhD7oTWIqOH2qP07OZuw9cw0+p6UEu
ksKJastQs7MCPL61SjC1qf+ljyVr5VAUxkuOuaab0Iz+wbozRfYcoGa7e4cIO9Nc
IMfJ0SQBJQHHSuN5GfzUbGD2Ie5mlfeC+wIDAQABo4GWMIGTMAkGA1UdEwQCMAAw
HQYDVR0OBBYEFM6gxn3tvpDXnaEg96HsOC27d0wTMEUGA1UdIwQ+MDyAFBl/lTr2
aGIMv52e3k4Fn3GQK6paoRmkFzAVMRMwEQYDVQQDDApMYXphcnVzIENBggkA6v8O
ZPZnn+kwEwYDVR0lBAwwCgYIKwYBBQUHAwIwCwYDVR0PBAQDAgeAMA0GCSqGSIb3
DQEBCwUAA4IBAQAl5TxJxtHdxxpjezyQYbvQlHMu4IxIaJzTXVWE3j29NjPHAZYb
hncvJpZNRjVUCGgvhO68VGJIDt31eRd0OXkS7n5pkGXC+7p3JFdBBPsxPK2oNDJR
6Yt+B36e2hUnP/FIioYVwTAFPWEhH0X6cQ7NgLfAWc3sKWXOXGXoCSMQhL/iXjGR
hgjzLa91Y7qLcv5fRCweqqdvb/3pQ1vFjoR9/w2J85Igo1mmcCaNU0B0LzEtwnyS
P/rCa1qbchdhu3y8lXbG6IZ1wIG4HM90OK/qMgj3g9gOHlvyTiQ7WEdINZHOdKmN
f+Et0+O4FM4Wiq3oKM8s1Akj5ZcRl1gPit9O
-----END CERTIFICATE-----
