Certificate:
    Data:
        Version: 3 (0x2)
        Serial Number:
            2e:65:f2:68:51:31:a3:71:77:ca:c2:4c:bf:c1:50:93
    Signature Algorithm: sha256WithRSAEncryption
        Issuer: CN=Lazarus CA
        Validity
            Not Before: Apr  6 14:17:16 2019 GMT
            Not After : Mar 21 14:17:16 2022 GMT
        Subject: CN=test23
        Subject Public Key Info:
            Public Key Algorithm: rsaEncryption
                Public-Key: (2048 bit)
                Modulus:
                    00:d4:20:4d:9f:55:56:0b:d5:e4:5c:c9:72:ce:3c:
                    e4:22:7e:55:01:22:12:b3:63:92:be:46:ab:03:55:
                    ef:db:09:fe:57:d0:95:8d:da:b6:7b:ee:50:1e:54:
                    5a:83:b9:db:97:a5:1d:79:73:93:5f:3e:c2:81:42:
                    53:2d:69:aa:37:cb:df:48:c1:a1:b6:fd:46:15:29:
                    0a:e1:02:12:ab:46:b4:6c:5f:dd:72:26:2a:d1:72:
                    5f:04:18:44:c5:31:24:3b:f3:ac:81:96:a1:47:78:
                    0b:47:07:15:d2:d7:0c:ef:f8:65:4b:22:95:83:24:
                    77:f7:55:15:a7:e0:52:0b:0d:c1:5e:b8:80:d9:78:
                    b3:9c:29:24:33:b3:86:bd:e7:31:73:47:6a:8e:d1:
                    78:03:15:9c:c2:65:53:ec:bb:1e:12:a1:30:fe:1b:
                    89:cd:e4:d9:31:dc:c6:44:6b:c3:17:c1:5f:57:a1:
                    7a:bd:86:b9:99:86:69:83:4b:50:fb:3a:4b:4b:04:
                    2e:02:b0:52:3a:f3:c1:5e:3c:3a:b8:48:59:83:e0:
                    bd:5e:c2:5a:75:64:ba:d9:01:01:f9:b7:52:aa:6a:
                    a0:c9:e6:b1:d6:f6:4c:e0:db:18:95:fd:33:53:f5:
                    a3:14:09:b6:88:0d:08:80:7e:fb:3f:06:c0:d3:45:
                    92:bb
                Exponent: 65537 (0x10001)
        X509v3 extensions:
            X509v3 Basic Constraints: 
                CA:FALSE
            X509v3 Subject Key Identifier: 
                B6:DD:B9:96:FA:2A:96:C7:EF:16:6A:7D:6B:57:C1:B0:5E:08:23:DA
            X509v3 Authority Key Identifier: 
                keyid:19:7F:95:3A:F6:68:62:0C:BF:9D:9E:DE:4E:05:9F:71:90:2B:AA:5A
                DirName:/CN=Lazarus CA
                serial:EA:FF:0E:64:F6:67:9F:E9

            X509v3 Extended Key Usage: 
                TLS Web Client Authentication
            X509v3 Key Usage: 
                Digital Signature
    Signature Algorithm: sha256WithRSAEncryption
         ac:b0:b9:61:44:43:4d:4a:73:54:e0:b3:67:89:44:7e:d2:da:
         8f:7e:fa:fe:d0:ef:7f:93:11:0a:bd:93:e9:1b:dd:52:cd:93:
         0f:07:9a:f3:11:a5:6b:b4:55:14:64:0c:e4:a9:05:29:cf:af:
         a7:d2:a0:cc:4d:3e:47:2f:3c:f6:78:71:2d:9d:37:eb:b2:42:
         7f:3d:ed:f1:27:11:0f:b6:14:07:ca:1b:95:a7:6b:17:56:08:
         15:bf:cd:27:ff:46:a3:de:e1:a4:c5:d4:b3:31:c9:b1:e2:7c:
         b5:7b:1d:67:26:58:17:56:c9:68:a7:e0:a2:43:6f:12:cb:0d:
         ef:d2:70:75:d2:ba:a7:4b:fd:6c:82:a1:75:86:20:aa:d1:6a:
         9c:cc:5f:b3:5a:08:cd:47:f4:3f:32:da:f3:ff:76:05:2a:95:
         03:d5:ac:0b:76:a9:db:ca:39:94:00:2b:76:db:92:d8:16:df:
         a8:d7:d8:bc:62:e4:0b:9c:e0:6d:d7:fb:6f:17:bb:ab:27:e9:
         87:04:48:34:7a:1c:66:95:24:4e:37:43:d0:f6:75:6f:a0:8c:
         bc:70:98:83:f6:b8:54:c9:d3:9c:59:96:19:71:f3:d8:1a:c1:
         41:cb:57:60:6b:fe:0d:e2:a4:6f:20:a8:80:36:21:cb:1c:6e:
         c9:7e:9d:b9
-----BEGIN CERTIFICATE-----
MIIDRzCCAi+gAwIBAgIQLmXyaFExo3F3ysJMv8FQkzANBgkqhkiG9w0BAQsFADAV
MRMwEQYDVQQDDApMYXphcnVzIENBMB4XDTE5MDQwNjE0MTcxNloXDTIyMDMyMTE0
MTcxNlowETEPMA0GA1UEAwwGdGVzdDIzMIIBIjANBgkqhkiG9w0BAQEFAAOCAQ8A
MIIBCgKCAQEA1CBNn1VWC9XkXMlyzjzkIn5VASISs2OSvkarA1Xv2wn+V9CVjdq2
e+5QHlRag7nbl6UdeXOTXz7CgUJTLWmqN8vfSMGhtv1GFSkK4QISq0a0bF/dciYq
0XJfBBhExTEkO/OsgZahR3gLRwcV0tcM7/hlSyKVgyR391UVp+BSCw3BXriA2Xiz
nCkkM7OGvecxc0dqjtF4AxWcwmVT7LseEqEw/huJzeTZMdzGRGvDF8FfV6F6vYa5
mYZpg0tQ+zpLSwQuArBSOvPBXjw6uEhZg+C9XsJadWS62QEB+bdSqmqgyeax1vZM
4NsYlf0zU/WjFAm2iA0IgH77PwbA00WSuwIDAQABo4GWMIGTMAkGA1UdEwQCMAAw
HQYDVR0OBBYEFLbduZb6KpbH7xZqfWtXwbBeCCPaMEUGA1UdIwQ+MDyAFBl/lTr2
aGIMv52e3k4Fn3GQK6paoRmkFzAVMRMwEQYDVQQDDApMYXphcnVzIENBggkA6v8O
ZPZnn+kwEwYDVR0lBAwwCgYIKwYBBQUHAwIwCwYDVR0PBAQDAgeAMA0GCSqGSIb3
DQEBCwUAA4IBAQCssLlhRENNSnNU4LNniUR+0tqPfvr+0O9/kxEKvZPpG91SzZMP
B5rzEaVrtFUUZAzkqQUpz6+n0qDMTT5HLzz2eHEtnTfrskJ/Pe3xJxEPthQHyhuV
p2sXVggVv80n/0aj3uGkxdSzMcmx4ny1ex1nJlgXVslop+CiQ28Syw3v0nB10rqn
S/1sgqF1hiCq0WqczF+zWgjNR/Q/Mtrz/3YFKpUD1awLdqnbyjmUACt225LYFt+o
19i8YuQLnOBt1/tvF7urJ+mHBEg0ehxmlSRON0PQ9nVvoIy8cJiD9rhUydOcWZYZ
cfPYGsFBy1dga/4N4qRvIKiANiHLHG7Jfp25
-----END CERTIFICATE-----
