Certificate:
    Data:
        Version: 3 (0x2)
        Serial Number:
            64:4d:c4:7b:3e:fb:b7:37:dd:20:0e:17:13:83:76:d7
    Signature Algorithm: sha256WithRSAEncryption
        Issuer: CN=Lazarus CA
        Validity
            Not Before: Mar 26 18:42:19 2019 GMT
            Not After : Mar 10 18:42:19 2022 GMT
        Subject: CN=test5
        Subject Public Key Info:
            Public Key Algorithm: rsaEncryption
                Public-Key: (2048 bit)
                Modulus:
                    00:bf:e0:fc:d0:48:8d:5e:a6:4e:5d:8b:f6:76:77:
                    a9:ee:58:56:40:17:49:f3:d5:b9:ae:bf:e1:1f:b8:
                    d0:46:b6:92:56:92:20:7c:9e:2e:b3:41:9e:5e:c8:
                    e8:02:56:d8:60:04:5b:c0:0b:61:31:39:4e:ff:84:
                    2b:a7:c2:d3:05:3b:1e:0d:43:bd:1e:56:ae:38:8e:
                    37:07:fe:9e:0e:57:c1:84:d5:8a:26:4c:4d:1e:ba:
                    93:f6:56:3a:c0:ba:53:3b:20:48:34:e1:86:1d:d9:
                    02:2b:c4:a7:78:8e:69:37:e8:41:6a:16:f6:ed:91:
                    ca:ad:9b:8b:4b:4a:c8:0d:df:3e:32:7b:14:40:1c:
                    62:4e:a2:6a:03:e3:eb:72:44:74:62:3c:df:1d:6a:
                    c5:f8:5f:2a:99:76:c7:fb:95:d9:09:2d:49:24:06:
                    f6:d0:07:9d:3b:a2:76:ce:ef:15:d8:76:a3:e4:12:
                    37:ad:45:39:cf:c9:3f:5f:c2:c4:06:fb:05:0d:62:
                    7b:d0:0c:75:fe:67:fb:f3:22:74:1f:28:99:cf:60:
                    e2:71:77:b9:e7:6f:a6:73:83:09:5d:4c:25:5c:fc:
                    c8:62:ef:45:95:71:40:33:d7:9b:d9:70:c5:0b:81:
                    f7:07:e1:1c:ba:52:d1:f4:b9:f7:85:d9:a7:46:d3:
                    e5:35
                Exponent: 65537 (0x10001)
        X509v3 extensions:
            X509v3 Basic Constraints: 
                CA:FALSE
            X509v3 Subject Key Identifier: 
                16:8D:49:44:29:B4:48:3C:68:F8:85:E4:25:10:01:33:C7:85:62:5A
            X509v3 Authority Key Identifier: 
                keyid:19:7F:95:3A:F6:68:62:0C:BF:9D:9E:DE:4E:05:9F:71:90:2B:AA:5A
                DirName:/CN=Lazarus CA
                serial:EA:FF:0E:64:F6:67:9F:E9

            X509v3 Extended Key Usage: 
                TLS Web Client Authentication
            X509v3 Key Usage: 
                Digital Signature
    Signature Algorithm: sha256WithRSAEncryption
         42:b6:90:d2:c1:96:06:18:c5:7b:e1:c4:8f:b8:2a:f1:73:7e:
         3c:62:7d:89:d2:95:c7:90:d6:39:46:89:ea:a2:b6:78:76:e2:
         67:e7:83:2f:79:2a:34:07:a4:76:0d:0a:f4:25:c8:a5:00:a5:
         4c:8c:81:5e:c0:c7:1a:e4:31:8b:1f:cf:e7:52:22:95:fd:eb:
         04:0e:ed:92:5d:98:f7:a1:64:3d:c5:69:12:6c:0b:19:d7:0d:
         f3:58:ae:4e:72:71:5b:c1:4b:14:89:f0:a0:e9:14:d4:fe:1f:
         80:b9:6d:a8:bf:52:09:0d:3b:87:dc:fc:1c:78:90:f1:03:a2:
         71:28:0d:14:c4:f0:50:0b:93:6d:a3:d2:2c:9f:1c:2d:43:55:
         9e:cd:b9:a2:7e:fd:60:9d:85:4e:0c:07:05:3d:75:1a:b7:7c:
         91:db:e1:ee:9c:2d:54:4b:fa:12:75:2c:ed:91:63:e1:31:d8:
         1a:86:23:ed:63:8e:3a:90:6f:c1:6d:2b:ac:52:77:57:10:22:
         04:82:36:6f:4f:1f:dd:67:0f:32:03:07:ee:9f:26:08:19:1e:
         5e:cd:1d:4f:fe:7c:40:a2:f4:00:0a:f2:3f:0d:17:87:95:ca:
         78:7f:4f:12:42:e8:0a:0c:54:a1:49:b9:ea:ec:58:21:6d:10:
         8a:45:c1:e1
-----BEGIN CERTIFICATE-----
MIIDRjCCAi6gAwIBAgIQZE3Eez77tzfdIA4XE4N21zANBgkqhkiG9w0BAQsFADAV
MRMwEQYDVQQDDApMYXphcnVzIENBMB4XDTE5MDMyNjE4NDIxOVoXDTIyMDMxMDE4
NDIxOVowEDEOMAwGA1UEAwwFdGVzdDUwggEiMA0GCSqGSIb3DQEBAQUAA4IBDwAw
ggEKAoIBAQC/4PzQSI1epk5di/Z2d6nuWFZAF0nz1bmuv+EfuNBGtpJWkiB8ni6z
QZ5eyOgCVthgBFvAC2ExOU7/hCunwtMFOx4NQ70eVq44jjcH/p4OV8GE1YomTE0e
upP2VjrAulM7IEg04YYd2QIrxKd4jmk36EFqFvbtkcqtm4tLSsgN3z4yexRAHGJO
omoD4+tyRHRiPN8dasX4XyqZdsf7ldkJLUkkBvbQB507onbO7xXYdqPkEjetRTnP
yT9fwsQG+wUNYnvQDHX+Z/vzInQfKJnPYOJxd7nnb6ZzgwldTCVc/Mhi70WVcUAz
15vZcMULgfcH4Ry6UtH0ufeF2adG0+U1AgMBAAGjgZYwgZMwCQYDVR0TBAIwADAd
BgNVHQ4EFgQUFo1JRCm0SDxo+IXkJRABM8eFYlowRQYDVR0jBD4wPIAUGX+VOvZo
Ygy/nZ7eTgWfcZArqlqhGaQXMBUxEzARBgNVBAMMCkxhemFydXMgQ0GCCQDq/w5k
9mef6TATBgNVHSUEDDAKBggrBgEFBQcDAjALBgNVHQ8EBAMCB4AwDQYJKoZIhvcN
AQELBQADggEBAEK2kNLBlgYYxXvhxI+4KvFzfjxifYnSlceQ1jlGieqitnh24mfn
gy95KjQHpHYNCvQlyKUApUyMgV7AxxrkMYsfz+dSIpX96wQO7ZJdmPehZD3FaRJs
CxnXDfNYrk5ycVvBSxSJ8KDpFNT+H4C5bai/UgkNO4fc/Bx4kPEDonEoDRTE8FAL
k22j0iyfHC1DVZ7NuaJ+/WCdhU4MBwU9dRq3fJHb4e6cLVRL+hJ1LO2RY+Ex2BqG
I+1jjjqQb8FtK6xSd1cQIgSCNm9PH91nDzIDB+6fJggZHl7NHU/+fECi9AAK8j8N
F4eVynh/TxJC6AoMVKFJuersWCFtEIpFweE=
-----END CERTIFICATE-----
