Certificate:
    Data:
        Version: 3 (0x2)
        Serial Number:
            85:28:ca:8e:9a:94:54:a9:6a:ee:7f:a4:84:52:27:30
    Signature Algorithm: sha256WithRSAEncryption
        Issuer: CN=Lazarus CA
        Validity
            Not Before: Mar 27 14:19:19 2019 GMT
            Not After : Mar 11 14:19:19 2022 GMT
        Subject: CN=test6
        Subject Public Key Info:
            Public Key Algorithm: rsaEncryption
                Public-Key: (2048 bit)
                Modulus:
                    00:d0:e4:e2:28:f0:f2:75:91:f2:79:c3:6d:ac:2c:
                    2e:1e:6b:ad:2f:1f:0d:15:70:40:67:0d:71:ab:47:
                    13:c3:3b:dd:6d:08:81:c3:8a:d6:be:76:54:b9:b5:
                    d8:9a:e6:ac:ae:39:59:9f:a5:34:1d:ff:fe:6c:6a:
                    39:4d:ef:63:e8:48:8a:58:ef:dd:f0:43:b3:cb:35:
                    43:94:35:93:b4:97:11:b7:e4:26:76:bb:67:c7:e4:
                    27:78:ae:44:14:88:44:91:52:b5:d0:52:87:cd:ab:
                    3f:b5:2b:f8:f8:88:83:87:ea:7c:11:06:37:52:99:
                    b3:a7:c2:d7:47:e9:2f:d8:4c:86:1d:b5:82:36:c9:
                    b6:22:10:82:63:cf:6b:cc:63:de:23:9f:24:94:ce:
                    8d:ff:78:5f:0e:cc:f7:c8:16:3f:a9:75:75:ef:a2:
                    e0:90:5d:ec:22:f0:70:ca:04:e4:ab:46:42:4d:b8:
                    39:8a:d8:1a:69:58:48:af:7c:91:1c:47:e1:88:a4:
                    76:f5:9f:7d:f5:eb:e2:cd:94:d2:02:c6:db:68:d7:
                    f8:8a:7e:84:c5:7e:b5:30:61:c2:21:5c:c8:c0:13:
                    90:59:f7:ed:99:bd:88:89:13:79:bf:c0:a4:8c:21:
                    9c:19:fc:03:63:30:49:f5:b6:6d:b1:76:35:2b:b6:
                    99:c9
                Exponent: 65537 (0x10001)
        X509v3 extensions:
            X509v3 Basic Constraints: 
                CA:FALSE
            X509v3 Subject Key Identifier: 
                21:B2:0B:8F:44:2E:C9:AF:2E:16:FC:1A:26:5E:84:EA:A8:C9:AC:83
            X509v3 Authority Key Identifier: 
                keyid:19:7F:95:3A:F6:68:62:0C:BF:9D:9E:DE:4E:05:9F:71:90:2B:AA:5A
                DirName:/CN=Lazarus CA
                serial:EA:FF:0E:64:F6:67:9F:E9

            X509v3 Extended Key Usage: 
                TLS Web Client Authentication
            X509v3 Key Usage: 
                Digital Signature
    Signature Algorithm: sha256WithRSAEncryption
         44:1a:bf:29:cf:43:f6:80:91:24:1d:ce:95:bb:2a:0d:93:52:
         d3:6c:b3:3d:ce:31:40:af:e1:09:ce:94:87:ea:fc:57:5e:47:
         6c:3e:d9:87:e6:65:7f:e1:3b:f5:28:d2:02:4f:63:88:bd:7a:
         ff:04:fb:3a:d1:1f:7e:50:a8:30:8a:0f:7d:59:e3:5e:78:c4:
         0a:41:c3:70:d4:79:ce:24:9e:a3:77:0a:f9:8d:1d:65:8d:7a:
         fe:22:d6:32:9a:d2:ad:cb:91:cb:1a:45:e3:3a:16:65:f8:6b:
         4f:dc:9c:b0:ac:0e:48:98:8b:b6:c8:4d:c8:6d:26:55:32:79:
         13:e5:c3:81:c9:a0:63:bc:4e:b4:59:18:58:59:34:94:51:ec:
         3b:56:d9:6a:ac:2c:18:ba:1d:f2:39:46:17:32:7a:e7:53:f3:
         25:f5:71:72:df:5b:b5:be:4e:4e:33:09:2e:af:2f:e2:7f:49:
         53:f4:c5:03:0a:b7:9d:25:7d:8d:19:2b:b6:ee:c3:b2:9c:f5:
         b4:46:18:33:f4:d0:56:be:37:ba:72:46:02:c6:8f:9e:83:cc:
         90:00:af:28:51:76:1e:5f:e2:ff:f9:d4:37:cd:4c:6b:04:04:
         cc:45:68:4c:38:e1:f0:91:a6:10:d4:f0:9e:6a:e4:07:cf:63:
         ae:fd:1c:11
-----BEGIN CERTIFICATE-----
MIIDRzCCAi+gAwIBAgIRAIUoyo6alFSpau5/pIRSJzAwDQYJKoZIhvcNAQELBQAw
FTETMBEGA1UEAwwKTGF6YXJ1cyBDQTAeFw0xOTAzMjcxNDE5MTlaFw0yMjAzMTEx
NDE5MTlaMBAxDjAMBgNVBAMMBXRlc3Q2MIIBIjANBgkqhkiG9w0BAQEFAAOCAQ8A
MIIBCgKCAQEA0OTiKPDydZHyecNtrCwuHmutLx8NFXBAZw1xq0cTwzvdbQiBw4rW
vnZUubXYmuasrjlZn6U0Hf/+bGo5Te9j6EiKWO/d8EOzyzVDlDWTtJcRt+Qmdrtn
x+QneK5EFIhEkVK10FKHzas/tSv4+IiDh+p8EQY3Upmzp8LXR+kv2EyGHbWCNsm2
IhCCY89rzGPeI58klM6N/3hfDsz3yBY/qXV176LgkF3sIvBwygTkq0ZCTbg5itga
aVhIr3yRHEfhiKR29Z999evizZTSAsbbaNf4in6ExX61MGHCIVzIwBOQWfftmb2I
iRN5v8CkjCGcGfwDYzBJ9bZtsXY1K7aZyQIDAQABo4GWMIGTMAkGA1UdEwQCMAAw
HQYDVR0OBBYEFCGyC49ELsmvLhb8GiZehOqoyayDMEUGA1UdIwQ+MDyAFBl/lTr2
aGIMv52e3k4Fn3GQK6paoRmkFzAVMRMwEQYDVQQDDApMYXphcnVzIENBggkA6v8O
ZPZnn+kwEwYDVR0lBAwwCgYIKwYBBQUHAwIwCwYDVR0PBAQDAgeAMA0GCSqGSIb3
DQEBCwUAA4IBAQBEGr8pz0P2gJEkHc6VuyoNk1LTbLM9zjFAr+EJzpSH6vxXXkds
PtmH5mV/4Tv1KNICT2OIvXr/BPs60R9+UKgwig99WeNeeMQKQcNw1HnOJJ6jdwr5
jR1ljXr+ItYymtKty5HLGkXjOhZl+GtP3JywrA5ImIu2yE3IbSZVMnkT5cOByaBj
vE60WRhYWTSUUew7VtlqrCwYuh3yOUYXMnrnU/Ml9XFy31u1vk5OMwkury/if0lT
9MUDCredJX2NGSu27sOynPW0Rhgz9NBWvje6ckYCxo+eg8yQAK8oUXYeX+L/+dQ3
zUxrBATMRWhMOOHwkaYQ1PCeauQHz2Ou/RwR
-----END CERTIFICATE-----
