Certificate:
    Data:
        Version: 3 (0x2)
        Serial Number:
            04:a9:44:8f:f5:9c:b9:bc:87:b5:98:f3:c5:fa:45:95
    Signature Algorithm: sha256WithRSAEncryption
        Issuer: CN=Lazarus CA
        Validity
            Not Before: Apr 25 04:31:12 2019 GMT
            Not After : Apr  9 04:31:12 2022 GMT
        Subject: CN=FREE__Mw__1556166673
        Subject Public Key Info:
            Public Key Algorithm: rsaEncryption
                Public-Key: (2048 bit)
                Modulus:
                    00:ac:b8:d4:23:c4:47:60:be:7a:e8:20:ff:c4:a5:
                    7d:2e:d8:0c:4c:1f:80:b3:3c:eb:f7:3a:be:5d:5e:
                    7d:cc:5c:42:7f:82:39:aa:8a:cb:f3:1f:2c:96:3d:
                    30:53:6f:e3:de:5f:74:2d:2e:8b:81:83:76:50:df:
                    8a:25:89:23:7b:c6:a2:c9:9f:67:8d:77:c4:6d:b1:
                    28:a8:4e:8a:bd:5f:aa:e5:9e:ad:be:a3:db:63:2e:
                    01:c3:2b:9b:20:0c:87:8b:9e:b7:cc:b2:d7:23:96:
                    94:27:10:ee:8f:c1:03:f4:dd:1f:08:6a:a8:cb:a6:
                    1b:af:64:e9:dd:40:a1:31:ce:56:97:c7:ee:02:ac:
                    27:01:c5:cc:08:8e:ba:e5:af:93:b5:b6:11:f6:12:
                    8b:31:ad:8d:ed:1b:0e:d3:75:e9:18:2e:69:48:d1:
                    fb:db:5f:66:3e:fe:85:be:b3:5f:67:91:a7:c2:e7:
                    e9:d6:60:0c:b7:a6:58:4e:cd:df:bc:ce:a7:be:9d:
                    b3:df:3c:df:c8:47:08:8a:1d:23:ef:76:cc:ac:cf:
                    fd:bd:46:04:86:5a:8d:1a:7d:c0:32:17:84:15:e3:
                    e9:6c:12:d8:21:39:00:6b:ea:f3:f2:82:ec:2c:9b:
                    51:c6:a1:bd:96:2b:7c:f8:b6:e8:b4:be:e0:20:ab:
                    62:85
                Exponent: 65537 (0x10001)
        X509v3 extensions:
            X509v3 Basic Constraints: 
                CA:FALSE
            X509v3 Subject Key Identifier: 
                86:D4:EA:D7:EC:9A:E0:B9:40:ED:7D:95:F9:F2:2C:A0:BB:5C:A0:73
            X509v3 Authority Key Identifier: 
                keyid:19:7F:95:3A:F6:68:62:0C:BF:9D:9E:DE:4E:05:9F:71:90:2B:AA:5A
                DirName:/CN=Lazarus CA
                serial:EA:FF:0E:64:F6:67:9F:E9

            X509v3 Extended Key Usage: 
                TLS Web Client Authentication
            X509v3 Key Usage: 
                Digital Signature
    Signature Algorithm: sha256WithRSAEncryption
         05:71:87:b2:93:cd:bb:f2:4a:2c:f6:a0:94:af:6d:18:d3:4a:
         27:e0:38:d4:0c:cb:b8:ae:bb:9a:2b:92:5a:73:8b:13:09:7b:
         d7:5c:ea:03:bc:45:5a:f3:93:41:97:04:3f:c7:d6:b3:2b:c5:
         bc:29:08:52:0f:e6:9c:11:b4:c0:5c:df:f2:39:f4:e5:6a:e6:
         81:86:81:e1:02:78:ce:62:42:bf:f8:5a:7a:e4:6d:16:f3:ab:
         89:45:9a:63:4a:62:85:23:6b:24:f8:e6:53:cb:d6:b4:1c:f1:
         a8:4d:96:b3:d2:e7:b0:d4:09:ab:59:72:f8:a4:e4:e8:e8:a1:
         d8:eb:f4:57:5d:36:76:15:2a:c9:01:73:bc:0f:b1:5f:fe:41:
         a9:44:65:a9:3c:cd:7c:dd:5e:b0:9e:3a:ec:18:8a:6e:67:39:
         16:ab:a1:92:4c:d5:fb:cf:74:27:a3:96:94:bb:cc:ca:62:5c:
         eb:60:68:e1:58:d6:44:32:e2:68:ab:80:ef:d4:9b:57:2b:a7:
         05:6d:55:51:01:86:38:7f:d3:cd:c5:ec:c3:20:30:08:04:a7:
         f2:04:84:68:df:a2:c4:20:fc:50:af:8e:a0:a2:bb:a6:87:ef:
         c4:35:a3:61:c6:ff:04:72:35:5a:19:95:3c:cf:93:de:43:0b:
         67:e6:d2:b8
-----BEGIN CERTIFICATE-----
MIIDVTCCAj2gAwIBAgIQBKlEj/WcubyHtZjzxfpFlTANBgkqhkiG9w0BAQsFADAV
MRMwEQYDVQQDDApMYXphcnVzIENBMB4XDTE5MDQyNTA0MzExMloXDTIyMDQwOTA0
MzExMlowHzEdMBsGA1UEAwwURlJFRV9fTXdfXzE1NTYxNjY2NzMwggEiMA0GCSqG
SIb3DQEBAQUAA4IBDwAwggEKAoIBAQCsuNQjxEdgvnroIP/EpX0u2AxMH4CzPOv3
Or5dXn3MXEJ/gjmqisvzHyyWPTBTb+PeX3QtLouBg3ZQ34oliSN7xqLJn2eNd8Rt
sSioToq9X6rlnq2+o9tjLgHDK5sgDIeLnrfMstcjlpQnEO6PwQP03R8IaqjLphuv
ZOndQKExzlaXx+4CrCcBxcwIjrrlr5O1thH2EosxrY3tGw7TdekYLmlI0fvbX2Y+
/oW+s19nkafC5+nWYAy3plhOzd+8zqe+nbPfPN/IRwiKHSPvdsysz/29RgSGWo0a
fcAyF4QV4+lsEtghOQBr6vPyguwsm1HGob2WK3z4tui0vuAgq2KFAgMBAAGjgZYw
gZMwCQYDVR0TBAIwADAdBgNVHQ4EFgQUhtTq1+ya4LlA7X2V+fIsoLtcoHMwRQYD
VR0jBD4wPIAUGX+VOvZoYgy/nZ7eTgWfcZArqlqhGaQXMBUxEzARBgNVBAMMCkxh
emFydXMgQ0GCCQDq/w5k9mef6TATBgNVHSUEDDAKBggrBgEFBQcDAjALBgNVHQ8E
BAMCB4AwDQYJKoZIhvcNAQELBQADggEBAAVxh7KTzbvySiz2oJSvbRjTSifgONQM
y7iuu5orklpzixMJe9dc6gO8RVrzk0GXBD/H1rMrxbwpCFIP5pwRtMBc3/I59OVq
5oGGgeECeM5iQr/4WnrkbRbzq4lFmmNKYoUjayT45lPL1rQc8ahNlrPS57DUCatZ
cvik5Ojoodjr9FddNnYVKskBc7wPsV/+QalEZak8zXzdXrCeOuwYim5nORaroZJM
1fvPdCejlpS7zMpiXOtgaOFY1kQy4mirgO/Um1crpwVtVVEBhjh/083F7MMgMAgE
p/IEhGjfosQg/FCvjqCiu6aH78Q1o2HG/wRyNVoZlTzPk95DC2fm0rg=
-----END CERTIFICATE-----
