Certificate:
    Data:
        Version: 3 (0x2)
        Serial Number:
            0a:44:b0:d6:3a:44:82:16:d4:f5:ff:50:2a:c2:33:0e
    Signature Algorithm: sha256WithRSAEncryption
        Issuer: CN=Lazarus CA
        Validity
            Not Before: Apr  6 15:48:58 2019 GMT
            Not After : Mar 21 15:48:58 2022 GMT
        Subject: CN=rajan
        Subject Public Key Info:
            Public Key Algorithm: rsaEncryption
                Public-Key: (2048 bit)
                Modulus:
                    00:b7:00:27:49:65:54:ec:cc:bb:58:bd:65:04:a6:
                    d0:5c:91:9a:c8:6c:cd:26:2c:0d:d0:a0:f8:fc:14:
                    9d:24:cc:01:1c:13:8b:66:73:f0:24:f2:4c:7a:d3:
                    53:87:5a:b1:b3:96:2d:be:fd:b9:be:7c:d4:65:f9:
                    f2:e4:82:3b:0f:84:14:e2:b4:39:6c:04:9c:24:45:
                    aa:f5:ec:ff:89:ab:a9:66:73:cc:bc:36:30:62:15:
                    33:64:27:35:4f:99:db:16:99:6b:a2:8f:26:03:26:
                    34:2a:96:8d:d1:64:b6:2a:f3:d9:2d:6a:d4:b3:93:
                    fb:80:0e:9d:82:77:64:0f:f6:38:8f:38:ca:eb:1e:
                    d0:22:be:29:cc:b9:98:76:81:d7:64:78:ba:eb:d5:
                    c0:7f:39:6e:60:dc:b4:50:ee:d5:88:e7:86:34:e2:
                    5c:a6:13:c0:97:bb:e7:c9:5f:7c:5a:78:31:8f:94:
                    43:13:e5:b0:9e:88:1e:8e:7d:e1:67:4a:dc:29:60:
                    44:a3:40:79:be:d4:33:9c:73:7f:79:86:dd:ef:15:
                    bb:13:1b:00:1f:9b:4f:e7:0b:42:81:a1:e2:43:e9:
                    99:71:9b:cd:8a:09:12:37:42:ca:62:f0:da:89:d6:
                    2d:76:95:30:a8:4b:74:d2:9d:54:cd:c0:87:0f:8d:
                    5f:65
                Exponent: 65537 (0x10001)
        X509v3 extensions:
            X509v3 Basic Constraints: 
                CA:FALSE
            X509v3 Subject Key Identifier: 
                D3:03:EC:47:E9:43:2A:A5:B0:C9:BE:BC:CA:94:7B:2C:42:3F:F9:5C
            X509v3 Authority Key Identifier: 
                keyid:19:7F:95:3A:F6:68:62:0C:BF:9D:9E:DE:4E:05:9F:71:90:2B:AA:5A
                DirName:/CN=Lazarus CA
                serial:EA:FF:0E:64:F6:67:9F:E9

            X509v3 Extended Key Usage: 
                TLS Web Client Authentication
            X509v3 Key Usage: 
                Digital Signature
    Signature Algorithm: sha256WithRSAEncryption
         9b:20:06:3d:69:3a:15:36:fd:df:f3:22:9a:f5:b2:e0:20:6f:
         af:95:05:02:d0:69:08:64:56:84:38:29:53:21:28:eb:54:b5:
         0d:fa:6b:59:a1:01:47:d9:9f:1a:f1:8c:a6:f7:07:3b:f9:ff:
         92:ea:e8:cd:4f:1f:b7:d7:ee:47:6e:6c:0f:45:42:33:63:63:
         1c:61:90:cf:8e:d8:fb:0b:c4:c9:94:44:c3:8f:ca:5b:7e:51:
         61:25:74:70:3b:13:5a:60:9c:ae:37:c7:cd:63:9e:86:94:7e:
         99:1a:8c:e7:e6:75:cc:b8:7c:9d:73:92:70:37:ff:9c:e7:7a:
         34:9b:a6:ae:88:97:39:24:4b:59:d2:99:c1:64:b8:8d:ab:7f:
         bc:97:b9:47:85:c9:b5:7a:07:cc:b6:3c:ac:c9:24:b4:ae:16:
         93:13:b5:c2:72:02:69:51:84:2f:c9:83:a0:3a:35:7b:20:01:
         35:c3:f7:fa:aa:c6:94:7e:5d:ee:dc:bf:ae:45:65:11:18:af:
         37:5a:7f:69:8a:5e:7a:58:f0:af:b4:7b:28:ba:cf:84:7b:6a:
         dd:c1:e6:b6:8a:99:2e:5a:bc:27:fc:03:68:a9:87:20:2e:8e:
         15:0a:09:1c:ba:9b:fb:56:2f:a8:c7:c6:71:0b:7c:76:43:d6:
         d1:a9:d1:1d
-----BEGIN CERTIFICATE-----
MIIDRjCCAi6gAwIBAgIQCkSw1jpEghbU9f9QKsIzDjANBgkqhkiG9w0BAQsFADAV
MRMwEQYDVQQDDApMYXphcnVzIENBMB4XDTE5MDQwNjE1NDg1OFoXDTIyMDMyMTE1
NDg1OFowEDEOMAwGA1UEAwwFcmFqYW4wggEiMA0GCSqGSIb3DQEBAQUAA4IBDwAw
ggEKAoIBAQC3ACdJZVTszLtYvWUEptBckZrIbM0mLA3QoPj8FJ0kzAEcE4tmc/Ak
8kx601OHWrGzli2+/bm+fNRl+fLkgjsPhBTitDlsBJwkRar17P+Jq6lmc8y8NjBi
FTNkJzVPmdsWmWuijyYDJjQqlo3RZLYq89ktatSzk/uADp2Cd2QP9jiPOMrrHtAi
vinMuZh2gddkeLrr1cB/OW5g3LRQ7tWI54Y04lymE8CXu+fJX3xaeDGPlEMT5bCe
iB6OfeFnStwpYESjQHm+1DOcc395ht3vFbsTGwAfm0/nC0KBoeJD6Zlxm82KCRI3
Qspi8NqJ1i12lTCoS3TSnVTNwIcPjV9lAgMBAAGjgZYwgZMwCQYDVR0TBAIwADAd
BgNVHQ4EFgQU0wPsR+lDKqWwyb68ypR7LEI/+VwwRQYDVR0jBD4wPIAUGX+VOvZo
Ygy/nZ7eTgWfcZArqlqhGaQXMBUxEzARBgNVBAMMCkxhemFydXMgQ0GCCQDq/w5k
9mef6TATBgNVHSUEDDAKBggrBgEFBQcDAjALBgNVHQ8EBAMCB4AwDQYJKoZIhvcN
AQELBQADggEBAJsgBj1pOhU2/d/zIpr1suAgb6+VBQLQaQhkVoQ4KVMhKOtUtQ36
a1mhAUfZnxrxjKb3Bzv5/5Lq6M1PH7fX7kdubA9FQjNjYxxhkM+O2PsLxMmURMOP
ylt+UWEldHA7E1pgnK43x81jnoaUfpkajOfmdcy4fJ1zknA3/5znejSbpq6Ilzkk
S1nSmcFkuI2rf7yXuUeFybV6B8y2PKzJJLSuFpMTtcJyAmlRhC/Jg6A6NXsgATXD
9/qqxpR+Xe7cv65FZREYrzdaf2mKXnpY8K+0eyi6z4R7at3B5raKmS5avCf8A2ip
hyAujhUKCRy6m/tWL6jHxnELfHZD1tGp0R0=
-----END CERTIFICATE-----
