Certificate:
    Data:
        Version: 3 (0x2)
        Serial Number:
            15:d5:a1:c6:36:eb:61:dd:11:bf:30:0c:5a:71:03:07
        Signature Algorithm: sha256WithRSAEncryption
        Issuer: CN=Lazarus CA
        Validity
            Not Before: Mar 29 17:06:45 2020 GMT
            Not After : Mar 14 17:06:45 2023 GMT
        Subject: CN=test001
        Subject Public Key Info:
            Public Key Algorithm: rsaEncryption
                RSA Public-Key: (2048 bit)
                Modulus:
                    00:c3:88:8d:fb:cc:76:c7:20:51:b8:3e:d6:3a:35:
                    0c:55:26:7e:d3:ce:28:87:89:04:fe:4b:cd:bb:06:
                    c8:34:93:6d:bc:42:72:21:31:0b:7d:78:a5:d4:7b:
                    01:94:27:86:22:e1:94:b7:b3:f8:ab:8d:3f:c5:17:
                    51:87:78:ae:5f:7c:ed:09:2d:50:d2:b7:e4:e1:0b:
                    f7:4a:04:66:f0:eb:b9:9d:1d:4e:9c:f3:22:7d:77:
                    eb:99:cc:2f:9c:ff:8e:fc:4e:e0:85:6a:d7:e9:4f:
                    28:35:f4:43:77:18:5f:ba:2d:6e:87:f4:1a:d3:c0:
                    2e:78:dd:01:ae:b2:68:b8:86:7d:4b:46:30:9f:eb:
                    63:ce:eb:13:0a:2a:a9:a9:d1:df:08:f1:2d:60:bd:
                    9a:d4:16:29:fe:ae:9c:ba:b0:04:02:ae:67:18:e0:
                    b6:81:68:55:58:4e:94:fb:e5:28:e9:7e:72:b0:10:
                    cc:0d:de:1f:41:8e:4e:3c:a8:19:e5:7f:02:21:e1:
                    c4:a9:6f:a1:d0:ca:69:50:b4:e7:a8:41:d0:f6:81:
                    5a:49:bc:92:42:16:62:37:12:ba:4e:6c:14:ed:32:
                    ba:ea:cf:4d:a7:95:7c:4a:c5:78:94:5a:7b:53:1b:
                    9e:11:ed:58:5a:4a:dd:0c:de:c2:a1:c6:40:57:22:
                    36:2f
                Exponent: 65537 (0x10001)
        X509v3 extensions:
            X509v3 Basic Constraints: 
                CA:FALSE
            X509v3 Subject Key Identifier: 
                42:DE:04:EC:4D:F1:59:40:61:88:B7:89:18:B4:A2:56:FF:AA:7A:D8
            X509v3 Authority Key Identifier: 
                keyid:19:7F:95:3A:F6:68:62:0C:BF:9D:9E:DE:4E:05:9F:71:90:2B:AA:5A
                DirName:/CN=Lazarus CA
                serial:EA:FF:0E:64:F6:67:9F:E9

            X509v3 Extended Key Usage: 
                TLS Web Client Authentication
            X509v3 Key Usage: 
                Digital Signature
    Signature Algorithm: sha256WithRSAEncryption
         37:6c:eb:e8:2d:4d:5f:76:bf:31:4b:86:2e:2a:9e:d5:37:b9:
         64:19:a5:61:d6:b8:ca:36:ff:06:d7:79:e1:18:3e:bb:b2:6b:
         0b:f2:e4:68:d6:c2:9c:9f:18:13:e4:d2:5c:8c:6c:07:6c:17:
         09:dc:59:ec:16:cc:6d:3b:aa:79:55:bc:eb:7a:52:31:88:06:
         3b:ec:2c:20:36:d0:5a:18:85:68:91:fd:dc:e8:d0:75:5a:5f:
         78:e5:d8:98:60:8f:30:bc:55:bf:b3:3f:7a:5c:e4:eb:d6:fd:
         7b:e2:d3:8d:03:6e:f4:f0:48:c2:26:30:60:6d:ef:a5:7d:88:
         09:fa:c4:fa:47:4c:86:0e:b7:ea:6c:68:93:94:68:42:8b:c9:
         82:6e:a5:1f:d7:84:a0:6e:5f:de:5c:ab:8e:ed:00:7b:73:b8:
         35:be:0d:2c:22:4e:87:d7:f0:08:45:6e:6b:3d:c6:7d:c8:71:
         c6:8e:00:eb:28:a9:a4:00:2d:de:3b:1a:84:9a:66:7b:ff:0a:
         33:4a:ce:f6:70:9e:66:83:ab:8f:41:01:cb:2c:a8:9b:3f:14:
         1f:dd:18:7f:8d:fc:6c:49:89:4f:d4:75:06:13:1f:5d:ca:a1:
         4e:d7:33:5c:3e:dc:61:c2:df:10:8b:0c:17:b4:de:51:b4:93:
         a2:b8:d3:99
-----BEGIN CERTIFICATE-----
MIIDSDCCAjCgAwIBAgIQFdWhxjbrYd0RvzAMWnEDBzANBgkqhkiG9w0BAQsFADAV
MRMwEQYDVQQDDApMYXphcnVzIENBMB4XDTIwMDMyOTE3MDY0NVoXDTIzMDMxNDE3
MDY0NVowEjEQMA4GA1UEAwwHdGVzdDAwMTCCASIwDQYJKoZIhvcNAQEBBQADggEP
ADCCAQoCggEBAMOIjfvMdscgUbg+1jo1DFUmftPOKIeJBP5LzbsGyDSTbbxCciEx
C314pdR7AZQnhiLhlLez+KuNP8UXUYd4rl987QktUNK35OEL90oEZvDruZ0dTpzz
In1365nML5z/jvxO4IVq1+lPKDX0Q3cYX7otbof0GtPALnjdAa6yaLiGfUtGMJ/r
Y87rEwoqqanR3wjxLWC9mtQWKf6unLqwBAKuZxjgtoFoVVhOlPvlKOl+crAQzA3e
H0GOTjyoGeV/AiHhxKlvodDKaVC056hB0PaBWkm8kkIWYjcSuk5sFO0yuurPTaeV
fErFeJRae1MbnhHtWFpK3QzewqHGQFciNi8CAwEAAaOBljCBkzAJBgNVHRMEAjAA
MB0GA1UdDgQWBBRC3gTsTfFZQGGIt4kYtKJW/6p62DBFBgNVHSMEPjA8gBQZf5U6
9mhiDL+dnt5OBZ9xkCuqWqEZpBcwFTETMBEGA1UEAwwKTGF6YXJ1cyBDQYIJAOr/
DmT2Z5/pMBMGA1UdJQQMMAoGCCsGAQUFBwMCMAsGA1UdDwQEAwIHgDANBgkqhkiG
9w0BAQsFAAOCAQEAN2zr6C1NX3a/MUuGLiqe1Te5ZBmlYda4yjb/Btd54Rg+u7Jr
C/LkaNbCnJ8YE+TSXIxsB2wXCdxZ7BbMbTuqeVW863pSMYgGO+wsIDbQWhiFaJH9
3OjQdVpfeOXYmGCPMLxVv7M/elzk69b9e+LTjQNu9PBIwiYwYG3vpX2ICfrE+kdM
hg636mxok5RoQovJgm6lH9eEoG5f3lyrju0Ae3O4Nb4NLCJOh9fwCEVuaz3Gfchx
xo4A6yippAAt3jsahJpme/8KM0rO9nCeZoOrj0EByyyomz8UH90Yf438bEmJT9R1
BhMfXcqhTtczXD7cYcLfEIsMF7TeUbSTorjTmQ==
-----END CERTIFICATE-----
