Certificate:
    Data:
        Version: 3 (0x2)
        Serial Number:
            1a:03:63:44:65:ce:53:e7:a5:fa:71:67:99:9b:00:ea
    Signature Algorithm: sha256WithRSAEncryption
        Issuer: CN=Lazarus CA
        Validity
            Not Before: Apr  6 13:54:47 2019 GMT
            Not After : Mar 21 13:54:47 2022 GMT
        Subject: CN=takala
        Subject Public Key Info:
            Public Key Algorithm: rsaEncryption
                Public-Key: (2048 bit)
                Modulus:
                    00:c6:35:b1:68:7c:fa:25:7d:39:aa:f5:2b:a8:f7:
                    df:67:24:5e:e8:b2:59:80:02:d3:e2:e8:e7:3d:9f:
                    30:29:1a:eb:27:07:dd:fc:0f:05:e3:a6:53:51:d8:
                    8d:c5:d8:bf:65:cc:40:4a:48:71:53:ae:d6:99:e6:
                    d3:89:a8:4b:d4:db:99:ab:a1:73:b7:dd:72:a9:ac:
                    c9:9f:f1:fe:75:6d:e0:83:53:53:92:7c:af:51:cd:
                    27:17:c3:63:62:3d:2d:31:c3:95:ac:46:5a:3c:f8:
                    00:3b:25:21:81:e5:92:84:e9:24:bc:05:42:76:ec:
                    ea:bb:9f:54:29:b7:ab:79:64:23:9b:23:ce:72:39:
                    01:ee:e4:0e:c8:bf:ae:4f:71:d0:ef:53:2b:b4:69:
                    22:c1:40:a9:3e:a6:d3:43:75:0c:55:cf:d4:da:1b:
                    bc:f3:bb:f0:a7:77:ef:3c:5a:92:fc:ff:09:d2:15:
                    41:16:6b:ba:dc:60:a8:4e:98:c2:96:2f:03:93:ca:
                    bb:19:3b:f2:2c:7b:4d:5a:98:b2:99:20:59:d6:fb:
                    5d:d1:5d:13:d6:97:57:5b:41:83:76:35:68:98:ba:
                    ff:a7:64:bc:26:88:b8:01:fd:d2:2f:1b:fa:74:cf:
                    6e:dd:76:b9:9f:48:58:87:3f:3c:13:62:ba:7e:f6:
                    5b:03
                Exponent: 65537 (0x10001)
        X509v3 extensions:
            X509v3 Basic Constraints: 
                CA:FALSE
            X509v3 Subject Key Identifier: 
                BB:E4:48:84:51:6A:F9:D8:30:93:2F:FA:60:72:C3:BF:59:09:98:26
            X509v3 Authority Key Identifier: 
                keyid:19:7F:95:3A:F6:68:62:0C:BF:9D:9E:DE:4E:05:9F:71:90:2B:AA:5A
                DirName:/CN=Lazarus CA
                serial:EA:FF:0E:64:F6:67:9F:E9

            X509v3 Extended Key Usage: 
                TLS Web Client Authentication
            X509v3 Key Usage: 
                Digital Signature
    Signature Algorithm: sha256WithRSAEncryption
         d0:23:70:62:a3:b0:7a:38:f1:25:df:80:2c:85:30:f8:0c:6a:
         46:ec:53:3d:d4:93:66:83:6a:be:24:3d:c7:17:d8:af:43:fc:
         d1:0b:70:2a:49:ea:51:cd:89:83:a5:26:b8:a7:e8:c6:43:1f:
         50:83:5b:8a:06:26:5c:93:d5:3f:5d:2d:9a:76:93:46:c0:75:
         69:66:86:41:6f:f6:03:bb:1c:c2:9c:fc:65:f6:4c:97:1b:88:
         44:55:e6:ca:65:f5:44:ca:fe:32:03:10:50:11:41:84:30:0c:
         ba:f7:60:0e:85:f0:cf:4a:40:15:77:93:83:11:7a:ae:7c:67:
         c4:7a:32:bb:c0:cf:0d:a8:c3:21:b9:9a:72:76:a5:04:7a:90:
         8b:e3:f4:26:52:49:1a:e4:8b:09:1c:f6:99:74:43:f9:0a:9c:
         dc:69:05:88:5a:3e:a1:de:bf:a2:45:8c:ae:4e:ed:4c:8b:a0:
         e0:6e:05:86:0d:c0:ad:83:8d:04:21:d1:1b:a1:e2:99:8a:43:
         c2:b7:b3:9f:58:da:e0:f8:73:04:20:e3:61:df:47:bb:05:ee:
         94:a1:67:27:38:6b:b7:04:71:19:d1:ce:0f:5b:4b:6b:eb:a5:
         2d:29:ab:7b:ec:40:19:59:12:2a:a8:d8:20:3f:10:d1:10:be:
         a5:d3:49:b4
-----BEGIN CERTIFICATE-----
MIIDRzCCAi+gAwIBAgIQGgNjRGXOU+el+nFnmZsA6jANBgkqhkiG9w0BAQsFADAV
MRMwEQYDVQQDDApMYXphcnVzIENBMB4XDTE5MDQwNjEzNTQ0N1oXDTIyMDMyMTEz
NTQ0N1owETEPMA0GA1UEAwwGdGFrYWxhMIIBIjANBgkqhkiG9w0BAQEFAAOCAQ8A
MIIBCgKCAQEAxjWxaHz6JX05qvUrqPffZyRe6LJZgALT4ujnPZ8wKRrrJwfd/A8F
46ZTUdiNxdi/ZcxASkhxU67WmebTiahL1NuZq6Fzt91yqazJn/H+dW3gg1NTknyv
Uc0nF8NjYj0tMcOVrEZaPPgAOyUhgeWShOkkvAVCduzqu59UKbereWQjmyPOcjkB
7uQOyL+uT3HQ71MrtGkiwUCpPqbTQ3UMVc/U2hu887vwp3fvPFqS/P8J0hVBFmu6
3GCoTpjCli8Dk8q7GTvyLHtNWpiymSBZ1vtd0V0T1pdXW0GDdjVomLr/p2S8Joi4
Af3SLxv6dM9u3Xa5n0hYhz88E2K6fvZbAwIDAQABo4GWMIGTMAkGA1UdEwQCMAAw
HQYDVR0OBBYEFLvkSIRRavnYMJMv+mByw79ZCZgmMEUGA1UdIwQ+MDyAFBl/lTr2
aGIMv52e3k4Fn3GQK6paoRmkFzAVMRMwEQYDVQQDDApMYXphcnVzIENBggkA6v8O
ZPZnn+kwEwYDVR0lBAwwCgYIKwYBBQUHAwIwCwYDVR0PBAQDAgeAMA0GCSqGSIb3
DQEBCwUAA4IBAQDQI3Bio7B6OPEl34AshTD4DGpG7FM91JNmg2q+JD3HF9ivQ/zR
C3AqSepRzYmDpSa4p+jGQx9Qg1uKBiZck9U/XS2adpNGwHVpZoZBb/YDuxzCnPxl
9kyXG4hEVebKZfVEyv4yAxBQEUGEMAy692AOhfDPSkAVd5ODEXqufGfEejK7wM8N
qMMhuZpydqUEepCL4/QmUkka5IsJHPaZdEP5CpzcaQWIWj6h3r+iRYyuTu1Mi6Dg
bgWGDcCtg40EIdEboeKZikPCt7OfWNrg+HMEIONh30e7Be6UoWcnOGu3BHEZ0c4P
W0tr66UtKat77EAZWRIqqNggPxDREL6l00m0
-----END CERTIFICATE-----
