Certificate:
    Data:
        Version: 3 (0x2)
        Serial Number:
            20:97:c4:86:ce:2d:53:67:15:8c:32:56:83:4a:ee:20
    Signature Algorithm: sha256WithRSAEncryption
        Issuer: CN=Lazarus CA
        Validity
            Not Before: Apr  6 14:13:08 2019 GMT
            Not After : Mar 21 14:13:08 2022 GMT
        Subject: CN=test18
        Subject Public Key Info:
            Public Key Algorithm: rsaEncryption
                Public-Key: (2048 bit)
                Modulus:
                    00:ef:33:f5:09:15:0a:ea:01:8e:39:6e:b3:ea:25:
                    70:34:1a:4f:f1:9b:1b:0e:99:58:70:2b:fd:87:b0:
                    77:07:5f:47:5d:2b:53:7c:8e:29:de:30:06:66:fe:
                    ec:19:72:8b:4d:0a:f2:1f:fc:ac:17:45:75:67:79:
                    e2:f5:94:4f:bd:09:24:c0:42:b0:40:39:4d:7e:b6:
                    f8:88:c8:db:fa:bf:d4:2f:16:d9:e0:72:5c:29:91:
                    b5:34:26:d2:71:d7:8a:26:c3:bd:45:f3:49:5c:eb:
                    64:6f:d6:3b:13:88:80:41:84:bf:36:43:72:cd:20:
                    0b:23:a8:38:ab:af:81:00:87:95:c6:7e:4f:c1:a1:
                    0c:74:41:49:71:d1:e4:6d:4b:72:6f:da:38:cd:31:
                    6c:2a:2a:04:84:96:85:8e:cf:a6:4e:49:4b:68:b6:
                    a4:aa:14:45:95:d0:54:87:cd:de:e2:6e:f2:72:74:
                    2d:74:c6:7c:6e:df:76:85:fc:d2:e6:53:00:dc:c9:
                    0e:2e:c4:6e:aa:bb:fa:c5:d2:e3:05:c5:c6:b2:32:
                    1b:97:21:6f:70:ae:4c:e8:1f:6f:eb:44:cb:83:6e:
                    74:b7:9f:a6:1f:ad:c1:fa:36:ec:b5:cf:a5:6e:df:
                    86:04:21:60:fe:28:33:e5:13:49:64:5e:f5:ad:a5:
                    90:71
                Exponent: 65537 (0x10001)
        X509v3 extensions:
            X509v3 Basic Constraints: 
                CA:FALSE
            X509v3 Subject Key Identifier: 
                DE:11:22:1D:8A:78:86:8D:13:54:05:59:F5:9F:A6:F3:F3:9E:23:EB
            X509v3 Authority Key Identifier: 
                keyid:19:7F:95:3A:F6:68:62:0C:BF:9D:9E:DE:4E:05:9F:71:90:2B:AA:5A
                DirName:/CN=Lazarus CA
                serial:EA:FF:0E:64:F6:67:9F:E9

            X509v3 Extended Key Usage: 
                TLS Web Client Authentication
            X509v3 Key Usage: 
                Digital Signature
    Signature Algorithm: sha256WithRSAEncryption
         87:41:dc:ad:3c:2d:a2:39:2c:a5:c2:5c:03:19:bf:d7:77:a8:
         12:8c:45:f1:12:d2:5f:46:68:ad:46:98:9b:d2:a7:57:f1:9b:
         01:0e:5a:1c:9c:f4:bf:1c:a6:c2:ec:23:97:ce:7f:c8:f2:74:
         2f:c5:44:5f:25:32:2a:d1:c5:ce:e1:42:2d:b6:47:3a:9e:db:
         cb:2b:ed:6c:11:5e:d1:04:67:46:89:b6:31:16:9b:db:77:0f:
         18:8e:e2:4b:95:0b:b3:47:da:b3:02:91:3a:a3:04:91:ff:4b:
         36:9a:bf:20:97:d3:43:c1:3d:d5:3d:64:ee:ea:ef:2e:2c:7c:
         80:5e:cf:59:c5:f9:c1:f7:40:29:9d:a7:66:67:2b:d4:a9:8d:
         bb:c5:e4:6e:99:47:33:5e:bb:a5:eb:b2:18:c9:a1:33:3a:2f:
         0b:25:7f:e0:f8:c0:14:b6:3a:e1:ab:bd:9f:ff:d7:29:43:71:
         3b:d4:e7:24:70:3b:a5:56:8e:38:1f:11:83:a1:f0:47:92:f4:
         13:7c:26:b4:e4:38:69:2a:7f:2f:99:0f:59:53:cc:d8:eb:3d:
         b7:57:54:a9:a5:f4:99:9f:79:4f:dc:a4:1e:cb:85:40:f0:66:
         b1:22:c6:3b:1a:f8:2c:79:9d:b8:a6:57:82:f0:cc:9b:9e:b1:
         d5:9a:6a:cb
-----BEGIN CERTIFICATE-----
MIIDRzCCAi+gAwIBAgIQIJfEhs4tU2cVjDJWg0ruIDANBgkqhkiG9w0BAQsFADAV
MRMwEQYDVQQDDApMYXphcnVzIENBMB4XDTE5MDQwNjE0MTMwOFoXDTIyMDMyMTE0
MTMwOFowETEPMA0GA1UEAwwGdGVzdDE4MIIBIjANBgkqhkiG9w0BAQEFAAOCAQ8A
MIIBCgKCAQEA7zP1CRUK6gGOOW6z6iVwNBpP8ZsbDplYcCv9h7B3B19HXStTfI4p
3jAGZv7sGXKLTQryH/ysF0V1Z3ni9ZRPvQkkwEKwQDlNfrb4iMjb+r/ULxbZ4HJc
KZG1NCbScdeKJsO9RfNJXOtkb9Y7E4iAQYS/NkNyzSALI6g4q6+BAIeVxn5PwaEM
dEFJcdHkbUtyb9o4zTFsKioEhJaFjs+mTklLaLakqhRFldBUh83e4m7ycnQtdMZ8
bt92hfzS5lMA3MkOLsRuqrv6xdLjBcXGsjIblyFvcK5M6B9v60TLg250t5+mH63B
+jbstc+lbt+GBCFg/igz5RNJZF71raWQcQIDAQABo4GWMIGTMAkGA1UdEwQCMAAw
HQYDVR0OBBYEFN4RIh2KeIaNE1QFWfWfpvPzniPrMEUGA1UdIwQ+MDyAFBl/lTr2
aGIMv52e3k4Fn3GQK6paoRmkFzAVMRMwEQYDVQQDDApMYXphcnVzIENBggkA6v8O
ZPZnn+kwEwYDVR0lBAwwCgYIKwYBBQUHAwIwCwYDVR0PBAQDAgeAMA0GCSqGSIb3
DQEBCwUAA4IBAQCHQdytPC2iOSylwlwDGb/Xd6gSjEXxEtJfRmitRpib0qdX8ZsB
DlocnPS/HKbC7COXzn/I8nQvxURfJTIq0cXO4UIttkc6ntvLK+1sEV7RBGdGibYx
Fpvbdw8YjuJLlQuzR9qzApE6owSR/0s2mr8gl9NDwT3VPWTu6u8uLHyAXs9ZxfnB
90ApnadmZyvUqY27xeRumUczXrul67IYyaEzOi8LJX/g+MAUtjrhq72f/9cpQ3E7
1OckcDulVo44HxGDofBHkvQTfCa05DhpKn8vmQ9ZU8zY6z23V1SppfSZn3lP3KQe
y4VA8GaxIsY7GvgseZ24pleC8MybnrHVmmrL
-----END CERTIFICATE-----
