Certificate:
    Data:
        Version: 3 (0x2)
        Serial Number:
            28:59:05:56:64:79:b0:a3:dd:95:01:2a:b9:65:a1:de
    Signature Algorithm: sha256WithRSAEncryption
        Issuer: CN=Lazarus CA
        Validity
            Not Before: Mar 27 15:21:58 2019 GMT
            Not After : Mar 11 15:21:58 2022 GMT
        Subject: CN=fsdfasdfsdfsdf
        Subject Public Key Info:
            Public Key Algorithm: rsaEncryption
                Public-Key: (2048 bit)
                Modulus:
                    00:b7:75:82:f4:d9:ab:86:fa:9f:3d:5a:9e:dc:a1:
                    18:98:0c:71:61:87:5f:60:3a:ce:0d:59:3b:85:8f:
                    d0:29:1f:a1:4c:52:c4:e5:26:71:41:2b:ba:27:a7:
                    05:0e:d5:00:77:fc:ec:9a:ea:2d:c3:1f:f1:10:15:
                    78:41:41:10:47:4f:fd:57:da:60:44:76:f6:7a:94:
                    44:a4:21:40:b2:4e:83:77:0f:b4:44:48:1c:91:8f:
                    43:d5:50:d2:a4:07:d5:37:ba:98:63:62:23:5d:f5:
                    17:53:e9:9a:8b:24:20:52:9f:ee:45:55:b7:b9:54:
                    eb:d9:26:6e:9b:e1:07:b8:dd:29:dc:bf:ab:b5:7a:
                    76:62:b1:da:79:3d:ee:e9:10:14:4f:83:b7:ad:10:
                    e0:ef:1c:07:59:33:03:ae:0d:af:45:4e:8c:dc:f2:
                    bf:7b:5e:14:7f:c6:88:4d:be:35:68:36:a1:bd:2a:
                    dc:bb:0a:e0:c0:18:8d:db:65:f0:ca:09:19:59:ad:
                    ca:f5:45:bd:f3:d6:bc:ef:fd:4d:54:f5:bc:f0:37:
                    1f:42:74:8c:a8:ed:c1:6f:ff:85:cd:84:2e:98:a5:
                    75:ca:97:e2:92:9b:b2:f5:71:be:dd:0c:30:9d:17:
                    03:11:84:75:50:30:f6:3a:06:2c:a6:ba:00:bb:6e:
                    c1:25
                Exponent: 65537 (0x10001)
        X509v3 extensions:
            X509v3 Basic Constraints: 
                CA:FALSE
            X509v3 Subject Key Identifier: 
                F0:EA:F1:1C:F6:9E:7A:46:08:D7:70:46:B6:A8:82:2D:2D:8E:B2:71
            X509v3 Authority Key Identifier: 
                keyid:19:7F:95:3A:F6:68:62:0C:BF:9D:9E:DE:4E:05:9F:71:90:2B:AA:5A
                DirName:/CN=Lazarus CA
                serial:EA:FF:0E:64:F6:67:9F:E9

            X509v3 Extended Key Usage: 
                TLS Web Client Authentication
            X509v3 Key Usage: 
                Digital Signature
    Signature Algorithm: sha256WithRSAEncryption
         10:fb:af:b1:b3:12:a3:5c:61:be:c5:13:7d:fc:cb:af:39:dc:
         1d:d7:80:bf:86:49:58:7f:50:05:9b:88:d8:f8:9b:79:20:d1:
         94:b6:5d:fa:c7:04:cb:81:19:3a:ee:8c:02:a8:2f:91:a0:0f:
         71:26:1c:30:7f:9c:e6:71:04:1e:f8:49:07:e9:b1:a3:9b:7d:
         a4:62:4a:d5:a8:0f:53:c5:96:4c:b7:da:90:1f:21:aa:a4:ab:
         da:64:af:a5:b4:52:ac:91:dc:87:f9:0d:77:1d:43:ab:9e:59:
         fa:78:22:8a:5b:90:4a:ad:2b:ba:cb:1c:ab:a6:fe:12:d6:7c:
         67:14:e8:aa:68:7d:90:a0:13:b7:6d:e8:a8:48:e5:53:d1:de:
         da:a2:2c:f9:f1:92:60:15:2a:33:4b:31:e0:9d:4e:31:70:77:
         9a:de:5c:64:7e:6a:0a:e9:2c:8d:95:43:7e:44:17:64:3c:95:
         85:18:4d:4d:e0:42:f0:65:0e:e0:65:a6:57:d2:a3:68:f1:61:
         f9:2d:ab:56:e0:4f:7a:9b:34:70:85:a4:8f:8e:e6:d5:e4:48:
         8d:67:65:4c:a9:db:e2:f5:14:3a:9d:38:c8:52:ac:aa:46:5c:
         b9:a6:4d:b1:35:90:5a:3e:af:a5:57:7c:a0:ca:b3:c7:1c:a3:
         33:5c:78:a4
-----BEGIN CERTIFICATE-----
MIIDTzCCAjegAwIBAgIQKFkFVmR5sKPdlQEquWWh3jANBgkqhkiG9w0BAQsFADAV
MRMwEQYDVQQDDApMYXphcnVzIENBMB4XDTE5MDMyNzE1MjE1OFoXDTIyMDMxMTE1
MjE1OFowGTEXMBUGA1UEAwwOZnNkZmFzZGZzZGZzZGYwggEiMA0GCSqGSIb3DQEB
AQUAA4IBDwAwggEKAoIBAQC3dYL02auG+p89Wp7coRiYDHFhh19gOs4NWTuFj9Ap
H6FMUsTlJnFBK7onpwUO1QB3/Oya6i3DH/EQFXhBQRBHT/1X2mBEdvZ6lESkIUCy
ToN3D7RESByRj0PVUNKkB9U3uphjYiNd9RdT6ZqLJCBSn+5FVbe5VOvZJm6b4Qe4
3Sncv6u1enZisdp5Pe7pEBRPg7etEODvHAdZMwOuDa9FTozc8r97XhR/xohNvjVo
NqG9Kty7CuDAGI3bZfDKCRlZrcr1Rb3z1rzv/U1U9bzwNx9CdIyo7cFv/4XNhC6Y
pXXKl+KSm7L1cb7dDDCdFwMRhHVQMPY6BiymugC7bsElAgMBAAGjgZYwgZMwCQYD
VR0TBAIwADAdBgNVHQ4EFgQU8OrxHPaeekYI13BGtqiCLS2OsnEwRQYDVR0jBD4w
PIAUGX+VOvZoYgy/nZ7eTgWfcZArqlqhGaQXMBUxEzARBgNVBAMMCkxhemFydXMg
Q0GCCQDq/w5k9mef6TATBgNVHSUEDDAKBggrBgEFBQcDAjALBgNVHQ8EBAMCB4Aw
DQYJKoZIhvcNAQELBQADggEBABD7r7GzEqNcYb7FE338y6853B3XgL+GSVh/UAWb
iNj4m3kg0ZS2XfrHBMuBGTrujAKoL5GgD3EmHDB/nOZxBB74SQfpsaObfaRiStWo
D1PFlky32pAfIaqkq9pkr6W0UqyR3If5DXcdQ6ueWfp4IopbkEqtK7rLHKum/hLW
fGcU6KpofZCgE7dt6KhI5VPR3tqiLPnxkmAVKjNLMeCdTjFwd5reXGR+agrpLI2V
Q35EF2Q8lYUYTU3gQvBlDuBlplfSo2jxYfktq1bgT3qbNHCFpI+O5tXkSI1nZUyp
2+L1FDqdOMhSrKpGXLmmTbE1kFo+r6VXfKDKs8ccozNceKQ=
-----END CERTIFICATE-----
