Certificate:
    Data:
        Version: 3 (0x2)
        Serial Number:
            2d:36:a8:17:2c:c2:e2:ee:ea:92:7b:63:79:1c:09:41
    Signature Algorithm: sha256WithRSAEncryption
        Issuer: CN=Lazarus CA
        Validity
            Not Before: Mar 27 14:48:58 2019 GMT
            Not After : Mar 11 14:48:58 2022 GMT
        Subject: CN=test7
        Subject Public Key Info:
            Public Key Algorithm: rsaEncryption
                Public-Key: (2048 bit)
                Modulus:
                    00:d1:23:52:cc:4d:5d:fb:f4:49:bd:69:88:e0:61:
                    6c:14:fb:a0:0e:1a:ee:f1:6f:4d:52:ff:79:c9:42:
                    63:86:c5:2b:4d:73:b9:cf:61:b0:d4:1f:ca:67:92:
                    d7:6d:c6:55:40:b8:8e:a4:69:6f:05:c7:98:17:58:
                    41:8c:ce:f0:6c:f5:69:84:d0:5b:60:5f:08:8b:5d:
                    c0:61:51:13:5e:7b:c9:21:8a:a3:0b:fc:e5:11:ed:
                    66:bd:d3:ba:ba:4c:83:ef:31:39:c8:70:03:f1:0e:
                    5b:05:46:68:7d:30:ca:ee:d4:50:66:86:71:e6:1e:
                    27:96:40:85:30:c6:d6:22:4b:cd:da:73:ac:ab:41:
                    6a:33:1b:7b:06:46:67:51:32:04:18:d7:85:aa:b4:
                    fd:d3:ac:ee:0d:6f:0c:16:2d:6f:64:ae:0e:94:5c:
                    32:dd:a7:e0:da:fb:4c:c5:bc:56:ca:25:5a:9c:b8:
                    c4:a0:c9:bc:1d:25:95:17:8a:e2:11:da:9e:dc:7a:
                    86:00:70:d8:7e:a3:01:d9:e3:b5:58:8f:5a:11:65:
                    00:a7:2b:59:c8:21:2e:b1:72:8c:05:e4:c1:c9:51:
                    74:7c:9c:be:39:19:17:95:bb:62:26:50:07:da:b7:
                    73:85:e2:bc:ee:d4:ec:6d:89:be:b6:9e:56:71:ed:
                    69:e1
                Exponent: 65537 (0x10001)
        X509v3 extensions:
            X509v3 Basic Constraints: 
                CA:FALSE
            X509v3 Subject Key Identifier: 
                E6:D5:F5:AB:24:68:6A:16:55:DF:54:82:71:36:2A:9B:30:A5:03:4F
            X509v3 Authority Key Identifier: 
                keyid:19:7F:95:3A:F6:68:62:0C:BF:9D:9E:DE:4E:05:9F:71:90:2B:AA:5A
                DirName:/CN=Lazarus CA
                serial:EA:FF:0E:64:F6:67:9F:E9

            X509v3 Extended Key Usage: 
                TLS Web Client Authentication
            X509v3 Key Usage: 
                Digital Signature
    Signature Algorithm: sha256WithRSAEncryption
         b8:c5:88:f2:ba:bd:63:1b:97:d1:b2:4a:b9:70:62:9d:cf:34:
         d9:08:6b:da:2c:89:8e:6f:3a:07:41:c9:27:ef:cd:49:2d:4f:
         ab:d7:ee:9c:fa:8d:fa:f4:33:ac:f4:9f:1d:51:40:ce:22:9f:
         6d:19:c7:5f:c8:2e:f7:2d:36:94:c9:76:88:46:cc:78:2b:df:
         3b:93:c8:98:ba:c1:63:3a:fa:7f:7b:e9:0f:bc:54:0a:da:f9:
         21:4d:9f:91:7a:0b:22:d5:63:a1:bd:14:64:55:10:e3:22:c6:
         c0:0c:8b:ca:e6:ea:08:a6:22:e7:5a:2f:ce:ae:0a:bf:fc:d3:
         15:c6:ec:46:7b:d8:18:eb:98:d4:87:f7:e3:5a:94:66:f1:81:
         cc:58:43:18:28:dc:c0:a5:40:12:ea:f7:29:0d:13:cc:b5:de:
         2a:2b:c7:6b:00:6f:e4:2d:9b:73:48:64:b2:66:fb:e8:c2:ea:
         94:ed:3c:44:e2:f4:99:e4:03:bd:d8:7a:88:68:a4:fa:92:dd:
         92:0a:0d:9a:54:ef:bf:a7:24:00:c0:83:da:86:48:23:34:09:
         c2:7d:ce:b3:89:3c:87:38:f1:76:6c:9b:f0:30:2c:4b:85:e9:
         43:60:a3:5f:7d:cb:6b:d3:18:a6:da:82:bd:a0:54:2b:67:76:
         0a:a9:35:f2
-----BEGIN CERTIFICATE-----
MIIDRjCCAi6gAwIBAgIQLTaoFyzC4u7qkntjeRwJQTANBgkqhkiG9w0BAQsFADAV
MRMwEQYDVQQDDApMYXphcnVzIENBMB4XDTE5MDMyNzE0NDg1OFoXDTIyMDMxMTE0
NDg1OFowEDEOMAwGA1UEAwwFdGVzdDcwggEiMA0GCSqGSIb3DQEBAQUAA4IBDwAw
ggEKAoIBAQDRI1LMTV379Em9aYjgYWwU+6AOGu7xb01S/3nJQmOGxStNc7nPYbDU
H8pnktdtxlVAuI6kaW8Fx5gXWEGMzvBs9WmE0FtgXwiLXcBhURNee8khiqML/OUR
7Wa907q6TIPvMTnIcAPxDlsFRmh9MMru1FBmhnHmHieWQIUwxtYiS83ac6yrQWoz
G3sGRmdRMgQY14WqtP3TrO4NbwwWLW9krg6UXDLdp+Da+0zFvFbKJVqcuMSgybwd
JZUXiuIR2p7ceoYAcNh+owHZ47VYj1oRZQCnK1nIIS6xcowF5MHJUXR8nL45GReV
u2ImUAfat3OF4rzu1Oxtib62nlZx7WnhAgMBAAGjgZYwgZMwCQYDVR0TBAIwADAd
BgNVHQ4EFgQU5tX1qyRoahZV31SCcTYqmzClA08wRQYDVR0jBD4wPIAUGX+VOvZo
Ygy/nZ7eTgWfcZArqlqhGaQXMBUxEzARBgNVBAMMCkxhemFydXMgQ0GCCQDq/w5k
9mef6TATBgNVHSUEDDAKBggrBgEFBQcDAjALBgNVHQ8EBAMCB4AwDQYJKoZIhvcN
AQELBQADggEBALjFiPK6vWMbl9GySrlwYp3PNNkIa9osiY5vOgdBySfvzUktT6vX
7pz6jfr0M6z0nx1RQM4in20Zx1/ILvctNpTJdohGzHgr3zuTyJi6wWM6+n976Q+8
VAra+SFNn5F6CyLVY6G9FGRVEOMixsAMi8rm6gimIudaL86uCr/80xXG7EZ72Bjr
mNSH9+NalGbxgcxYQxgo3MClQBLq9ykNE8y13iorx2sAb+Qtm3NIZLJm++jC6pTt
PETi9JnkA73YeohopPqS3ZIKDZpU77+nJADAg9qGSCM0CcJ9zrOJPIc48XZsm/Aw
LEuF6UNgo199y2vTGKbagr2gVCtndgqpNfI=
-----END CERTIFICATE-----
