Certificate:
    Data:
        Version: 3 (0x2)
        Serial Number:
            3c:9b:ff:ef:5f:95:2a:d1:88:52:e5:a2:0b:f4:e2:ab
        Signature Algorithm: sha256WithRSAEncryption
        Issuer: CN=Lazarus CA
        Validity
            Not Before: Apr 26 08:01:42 2020 GMT
            Not After : Apr 11 08:01:42 2023 GMT
        Subject: CN=test1122
        Subject Public Key Info:
            Public Key Algorithm: rsaEncryption
                RSA Public-Key: (2048 bit)
                Modulus:
                    00:db:d4:ef:25:7b:f3:2a:04:70:f9:0c:22:94:30:
                    5d:6f:11:39:52:97:b9:bc:14:7d:90:ca:0c:db:4f:
                    52:95:5f:ad:c5:39:ec:66:f0:cc:68:fe:e7:a9:02:
                    be:ca:76:bb:97:7e:91:aa:43:a6:fb:50:55:10:46:
                    bb:0c:77:2f:ca:71:95:d4:63:db:04:02:f8:de:88:
                    98:26:00:75:49:d5:d3:f7:52:ba:d5:78:b0:e9:b5:
                    4f:f4:d0:80:33:2c:e9:1c:35:51:ac:ae:18:f2:16:
                    0c:a5:e4:e9:7c:2e:9e:d4:13:96:dd:1a:70:64:7a:
                    52:67:05:12:89:b3:dc:21:47:c3:8f:70:08:ae:db:
                    b4:cd:0f:a1:e9:da:37:7e:95:49:40:73:3a:0e:7b:
                    e4:26:c9:9f:e5:ca:99:55:9c:56:10:6a:2a:a7:7a:
                    9e:31:be:38:47:ab:3b:ef:75:c1:c1:b2:be:7b:1d:
                    c6:df:2d:cd:38:7b:0f:7f:59:20:79:2e:a9:1b:72:
                    6c:77:d1:ac:f2:95:23:4e:89:71:31:d7:06:5d:de:
                    33:34:3c:81:01:69:d1:18:48:ab:43:32:47:fa:b2:
                    12:64:36:97:ae:33:5b:33:25:5e:b8:b1:3d:da:ab:
                    35:a1:ba:4c:58:d8:e1:a4:fd:ff:ec:72:01:9e:da:
                    8a:11
                Exponent: 65537 (0x10001)
        X509v3 extensions:
            X509v3 Basic Constraints: 
                CA:FALSE
            X509v3 Subject Key Identifier: 
                30:F4:C8:8D:72:3A:61:C5:D4:EA:B3:78:DC:F6:7F:1B:E5:49:C1:FA
            X509v3 Authority Key Identifier: 
                keyid:19:7F:95:3A:F6:68:62:0C:BF:9D:9E:DE:4E:05:9F:71:90:2B:AA:5A
                DirName:/CN=Lazarus CA
                serial:EA:FF:0E:64:F6:67:9F:E9

            X509v3 Extended Key Usage: 
                TLS Web Client Authentication
            X509v3 Key Usage: 
                Digital Signature
    Signature Algorithm: sha256WithRSAEncryption
         1a:07:0a:51:b2:d9:59:f6:9c:7d:fe:91:86:e4:41:17:78:79:
         ee:42:e7:35:56:87:75:0c:52:4c:b2:c8:b2:72:a1:61:3c:6c:
         31:c1:a1:4b:4a:33:07:06:93:2a:08:d0:67:21:74:79:c6:cb:
         44:06:64:84:26:e7:0e:54:72:eb:43:d1:b5:e3:ba:33:d9:6e:
         f7:5f:cd:cd:06:13:c8:2b:da:73:a7:33:4a:c2:0e:f0:ae:e7:
         99:b2:9a:80:9d:fc:43:b2:dc:3b:58:2d:03:16:d4:39:30:74:
         68:33:68:c8:5d:14:dc:35:de:5e:cc:f5:e9:8a:84:78:7c:df:
         d1:03:da:57:be:4c:29:26:e3:94:d6:96:68:a4:67:90:34:5a:
         bc:a6:47:c9:43:6d:9c:87:f7:f3:09:4d:21:8e:12:91:76:89:
         9a:74:c6:3f:1e:75:30:fb:e1:b0:05:e6:f2:71:42:79:46:0f:
         fc:96:bc:47:c5:1f:af:ba:9e:37:fb:fb:fb:d8:dd:96:cb:71:
         87:9d:10:6a:9d:21:c0:ba:31:ce:55:c8:14:e1:b6:08:3b:ac:
         5a:de:8f:7e:56:08:9d:71:80:5d:7a:68:c7:fe:2b:ed:6f:db:
         ba:44:2e:f3:8d:b8:ab:4b:26:dc:42:94:0e:2c:15:2f:fa:c0:
         7f:37:3e:64
-----BEGIN CERTIFICATE-----
MIIDSTCCAjGgAwIBAgIQPJv/71+VKtGIUuWiC/TiqzANBgkqhkiG9w0BAQsFADAV
MRMwEQYDVQQDDApMYXphcnVzIENBMB4XDTIwMDQyNjA4MDE0MloXDTIzMDQxMTA4
MDE0MlowEzERMA8GA1UEAwwIdGVzdDExMjIwggEiMA0GCSqGSIb3DQEBAQUAA4IB
DwAwggEKAoIBAQDb1O8le/MqBHD5DCKUMF1vETlSl7m8FH2QygzbT1KVX63FOexm
8Mxo/uepAr7KdruXfpGqQ6b7UFUQRrsMdy/KcZXUY9sEAvjeiJgmAHVJ1dP3UrrV
eLDptU/00IAzLOkcNVGsrhjyFgyl5Ol8Lp7UE5bdGnBkelJnBRKJs9whR8OPcAiu
27TND6Hp2jd+lUlAczoOe+QmyZ/lyplVnFYQaiqnep4xvjhHqzvvdcHBsr57Hcbf
Lc04ew9/WSB5Lqkbcmx30azylSNOiXEx1wZd3jM0PIEBadEYSKtDMkf6shJkNpeu
M1szJV64sT3aqzWhukxY2OGk/f/scgGe2ooRAgMBAAGjgZYwgZMwCQYDVR0TBAIw
ADAdBgNVHQ4EFgQUMPTIjXI6YcXU6rN43PZ/G+VJwfowRQYDVR0jBD4wPIAUGX+V
OvZoYgy/nZ7eTgWfcZArqlqhGaQXMBUxEzARBgNVBAMMCkxhemFydXMgQ0GCCQDq
/w5k9mef6TATBgNVHSUEDDAKBggrBgEFBQcDAjALBgNVHQ8EBAMCB4AwDQYJKoZI
hvcNAQELBQADggEBABoHClGy2Vn2nH3+kYbkQRd4ee5C5zVWh3UMUkyyyLJyoWE8
bDHBoUtKMwcGkyoI0GchdHnGy0QGZIQm5w5UcutD0bXjujPZbvdfzc0GE8gr2nOn
M0rCDvCu55mymoCd/EOy3DtYLQMW1DkwdGgzaMhdFNw13l7M9emKhHh839ED2le+
TCkm45TWlmikZ5A0WrymR8lDbZyH9/MJTSGOEpF2iZp0xj8edTD74bAF5vJxQnlG
D/yWvEfFH6+6njf7+/vY3ZbLcYedEGqdIcC6Mc5VyBThtgg7rFrej35WCJ1xgF16
aMf+K+1v27pELvONuKtLJtxClA4sFS/6wH83PmQ=
-----END CERTIFICATE-----
