Certificate:
    Data:
        Version: 3 (0x2)
        Serial Number:
            3f:fa:49:de:8b:1e:df:5f:e2:b3:88:41:77:9e:99:d6
    Signature Algorithm: sha256WithRSAEncryption
        Issuer: CN=Lazarus CA
        Validity
            Not Before: Mar 26 18:40:10 2019 GMT
            Not After : Mar 10 18:40:10 2022 GMT
        Subject: CN=test4
        Subject Public Key Info:
            Public Key Algorithm: rsaEncryption
                Public-Key: (2048 bit)
                Modulus:
                    00:b7:86:a4:74:3e:2d:92:76:38:ea:2e:dd:f9:1f:
                    6d:b1:21:ec:f6:b3:9d:b3:cd:1a:23:2e:85:a4:04:
                    ee:50:54:dc:b4:64:a4:9d:5b:7c:23:9e:a1:e0:14:
                    cc:06:70:b9:63:6c:e9:9f:76:56:05:1b:cc:bd:55:
                    84:02:48:9d:73:f7:8e:15:1c:62:bf:4c:02:ad:4a:
                    43:ad:7f:4e:d4:1e:53:47:84:40:d2:69:b1:68:8e:
                    17:d9:a2:b8:40:5c:75:01:6b:5c:40:48:d6:e0:24:
                    88:f1:6a:9a:65:d1:3e:f0:ee:77:6d:e2:cd:21:e9:
                    eb:a2:cb:77:e6:e4:68:24:7e:e3:89:22:ab:1a:04:
                    62:68:f4:e0:32:eb:5c:41:6c:b2:b7:12:c6:2b:c5:
                    55:1d:67:f1:8d:6d:f9:a6:62:f6:e5:6b:de:15:6e:
                    9e:dd:68:7e:2f:39:90:6c:7b:6b:6b:6e:1a:b1:4f:
                    51:68:4f:a8:1b:91:58:bb:a5:e7:1c:45:3e:e5:10:
                    1a:b8:75:37:76:f8:8e:67:a8:5d:49:ed:c4:e5:ef:
                    09:0d:9f:29:b8:af:6c:80:0c:e0:c6:ed:42:c3:ae:
                    d3:18:7f:d8:89:ae:88:2c:f4:34:10:49:a7:86:d9:
                    34:ca:7f:94:2e:45:2b:07:15:4b:f4:92:09:3b:25:
                    a0:45
                Exponent: 65537 (0x10001)
        X509v3 extensions:
            X509v3 Basic Constraints: 
                CA:FALSE
            X509v3 Subject Key Identifier: 
                C8:D1:EE:28:38:3D:07:5F:27:79:F9:C5:A1:C4:96:1C:28:20:ED:B8
            X509v3 Authority Key Identifier: 
                keyid:19:7F:95:3A:F6:68:62:0C:BF:9D:9E:DE:4E:05:9F:71:90:2B:AA:5A
                DirName:/CN=Lazarus CA
                serial:EA:FF:0E:64:F6:67:9F:E9

            X509v3 Extended Key Usage: 
                TLS Web Client Authentication
            X509v3 Key Usage: 
                Digital Signature
    Signature Algorithm: sha256WithRSAEncryption
         ac:3d:e5:1d:71:86:86:d9:44:6e:d5:cc:b7:cf:00:ac:68:34:
         b2:5e:81:2c:21:07:bd:46:95:0e:f6:1f:ab:eb:07:91:99:11:
         3a:eb:74:b3:91:fd:9b:ae:5f:8b:f4:ea:68:13:ef:35:f3:66:
         9d:bd:a2:ad:1b:48:d9:0a:b4:54:0c:c5:31:fa:0e:da:d6:d9:
         94:c1:26:74:cd:5e:be:1a:d4:e3:78:65:5f:80:6b:17:66:ff:
         a2:34:42:56:5d:83:ef:28:00:2a:c9:65:1e:59:60:7e:6c:d5:
         8f:be:7a:77:b7:dc:d4:71:9d:af:e4:40:5a:10:bc:e9:60:3a:
         3c:52:dc:9c:d3:cd:83:8c:c1:7f:2f:28:ef:c6:82:57:6d:56:
         cd:f4:e7:f7:60:4c:22:05:7c:03:6c:ce:bf:eb:ff:e1:1f:64:
         be:aa:5d:aa:e0:bd:be:41:89:29:52:7f:a8:50:f5:3f:ea:6d:
         ad:82:2b:c1:e9:08:c3:52:bc:49:88:48:e6:31:fb:de:f1:0f:
         21:ea:c3:93:11:c7:35:4a:57:b9:d9:06:25:94:11:5b:6c:4a:
         62:66:ee:a3:e4:29:68:2c:38:0c:4e:ac:fb:4d:1b:4b:a9:44:
         bf:25:60:a9:90:06:ce:b1:31:b8:02:67:ad:f9:b4:99:a1:23:
         ec:58:bc:07
-----BEGIN CERTIFICATE-----
MIIDRjCCAi6gAwIBAgIQP/pJ3ose31/is4hBd56Z1jANBgkqhkiG9w0BAQsFADAV
MRMwEQYDVQQDDApMYXphcnVzIENBMB4XDTE5MDMyNjE4NDAxMFoXDTIyMDMxMDE4
NDAxMFowEDEOMAwGA1UEAwwFdGVzdDQwggEiMA0GCSqGSIb3DQEBAQUAA4IBDwAw
ggEKAoIBAQC3hqR0Pi2SdjjqLt35H22xIez2s52zzRojLoWkBO5QVNy0ZKSdW3wj
nqHgFMwGcLljbOmfdlYFG8y9VYQCSJ1z944VHGK/TAKtSkOtf07UHlNHhEDSabFo
jhfZorhAXHUBa1xASNbgJIjxappl0T7w7ndt4s0h6euiy3fm5GgkfuOJIqsaBGJo
9OAy61xBbLK3EsYrxVUdZ/GNbfmmYvbla94Vbp7daH4vOZBse2trbhqxT1FoT6gb
kVi7peccRT7lEBq4dTd2+I5nqF1J7cTl7wkNnym4r2yADODG7ULDrtMYf9iJrogs
9DQQSaeG2TTKf5QuRSsHFUv0kgk7JaBFAgMBAAGjgZYwgZMwCQYDVR0TBAIwADAd
BgNVHQ4EFgQUyNHuKDg9B18nefnFocSWHCgg7bgwRQYDVR0jBD4wPIAUGX+VOvZo
Ygy/nZ7eTgWfcZArqlqhGaQXMBUxEzARBgNVBAMMCkxhemFydXMgQ0GCCQDq/w5k
9mef6TATBgNVHSUEDDAKBggrBgEFBQcDAjALBgNVHQ8EBAMCB4AwDQYJKoZIhvcN
AQELBQADggEBAKw95R1xhobZRG7VzLfPAKxoNLJegSwhB71GlQ72H6vrB5GZETrr
dLOR/ZuuX4v06mgT7zXzZp29oq0bSNkKtFQMxTH6DtrW2ZTBJnTNXr4a1ON4ZV+A
axdm/6I0QlZdg+8oACrJZR5ZYH5s1Y++ene33NRxna/kQFoQvOlgOjxS3JzTzYOM
wX8vKO/GgldtVs305/dgTCIFfANszr/r/+EfZL6qXargvb5BiSlSf6hQ9T/qba2C
K8HpCMNSvEmISOYx+97xDyHqw5MRxzVKV7nZBiWUEVtsSmJm7qPkKWgsOAxOrPtN
G0upRL8lYKmQBs6xMbgCZ635tJmhI+xYvAc=
-----END CERTIFICATE-----
