Certificate:
    Data:
        Version: 3 (0x2)
        Serial Number:
            45:08:e5:f8:76:59:d7:27:a2:54:eb:a3:3b:1e:69:a2
    Signature Algorithm: sha256WithRSAEncryption
        Issuer: CN=Lazarus CA
        Validity
            Not Before: Apr  6 14:53:26 2019 GMT
            Not After : Mar 21 14:53:26 2022 GMT
        Subject: CN=test32
        Subject Public Key Info:
            Public Key Algorithm: rsaEncryption
                Public-Key: (2048 bit)
                Modulus:
                    00:bf:0a:1f:8e:1e:80:e3:0b:29:26:85:73:b2:3e:
                    1f:05:51:41:c3:f7:1e:19:b2:89:43:85:2d:80:63:
                    75:aa:1e:d8:21:e9:47:6f:79:0e:8b:fb:74:39:6e:
                    fe:e1:e4:5f:91:0b:f7:80:e0:98:6b:a3:a2:de:6e:
                    2e:45:50:e9:fb:16:45:7d:39:71:20:55:0f:5f:e5:
                    12:13:99:58:a2:50:35:35:b4:5c:e0:74:ae:28:59:
                    a4:ce:47:c5:af:a5:e3:a1:12:05:e5:f9:c6:f8:e0:
                    8d:05:97:80:8a:41:0e:88:b9:86:0f:3f:14:d1:aa:
                    d9:75:9a:8d:9f:2f:2b:6c:79:f6:81:9f:6b:c8:3b:
                    f4:f7:6f:b4:61:8c:1f:cc:94:bb:8a:5d:95:8a:ec:
                    d9:89:1b:0b:2f:5d:64:ff:27:19:0d:ee:1c:f9:2d:
                    86:d6:68:57:b7:6d:c6:00:38:70:ef:8d:ff:83:0f:
                    a7:85:72:73:b7:1e:f2:2e:25:a9:c0:70:1e:90:c2:
                    8b:7e:d0:61:78:32:4e:39:7b:d8:b8:1c:1b:da:83:
                    68:bc:6f:c7:fb:3d:ee:70:ee:b1:ca:f3:ab:92:8d:
                    6f:2d:52:96:b3:9e:34:ba:c8:3e:65:63:51:24:6c:
                    d9:e6:0f:cc:35:95:e2:0a:f2:14:4c:a9:cd:a5:87:
                    06:eb
                Exponent: 65537 (0x10001)
        X509v3 extensions:
            X509v3 Basic Constraints: 
                CA:FALSE
            X509v3 Subject Key Identifier: 
                4D:3C:65:03:E2:39:0A:98:6F:B0:F7:0E:FF:37:67:E0:81:CF:C5:F5
            X509v3 Authority Key Identifier: 
                keyid:19:7F:95:3A:F6:68:62:0C:BF:9D:9E:DE:4E:05:9F:71:90:2B:AA:5A
                DirName:/CN=Lazarus CA
                serial:EA:FF:0E:64:F6:67:9F:E9

            X509v3 Extended Key Usage: 
                TLS Web Client Authentication
            X509v3 Key Usage: 
                Digital Signature
    Signature Algorithm: sha256WithRSAEncryption
         c6:49:0c:1e:80:d5:84:dd:96:97:25:5d:5c:2e:d7:8e:04:4c:
         94:24:b3:84:39:76:6b:af:6d:45:85:0a:f0:df:23:d6:03:4f:
         c1:a1:85:26:3d:a4:1a:1b:7d:d8:9b:c1:72:d4:7c:3b:e7:ec:
         89:ec:65:01:94:54:30:bc:24:d6:38:e3:8f:5f:fe:a8:3d:81:
         fd:47:42:55:1e:5e:5b:73:58:0c:88:2a:a0:f4:1e:91:f0:af:
         d2:8c:66:5c:db:2c:d4:c0:34:98:b6:bb:17:cc:73:fe:51:c7:
         eb:da:dd:54:06:0d:9c:ad:f3:3e:af:8f:60:73:81:37:75:22:
         0f:62:2d:71:70:d6:03:49:09:c9:58:60:e2:f5:19:e6:a0:f2:
         f3:fe:fc:16:49:d2:b5:88:57:d8:fb:36:a6:d3:f2:09:84:0c:
         8e:a4:be:b1:12:e2:9f:a0:9e:c4:f8:60:8e:8d:6f:50:4a:e6:
         73:36:c9:52:67:99:f9:2a:a7:94:a2:e8:d4:88:af:1f:16:e6:
         88:14:9b:76:2e:1e:81:50:e3:3b:9f:92:e8:f2:a0:0c:6f:51:
         f4:f7:25:c7:ff:55:23:b9:3c:7b:8b:1a:e6:e2:52:4f:6d:9d:
         b8:bd:38:d2:48:28:30:c7:31:3a:d2:7f:db:7c:3c:51:ba:b3:
         c7:ca:22:85
-----BEGIN CERTIFICATE-----
MIIDRzCCAi+gAwIBAgIQRQjl+HZZ1yeiVOujOx5pojANBgkqhkiG9w0BAQsFADAV
MRMwEQYDVQQDDApMYXphcnVzIENBMB4XDTE5MDQwNjE0NTMyNloXDTIyMDMyMTE0
NTMyNlowETEPMA0GA1UEAwwGdGVzdDMyMIIBIjANBgkqhkiG9w0BAQEFAAOCAQ8A
MIIBCgKCAQEAvwofjh6A4wspJoVzsj4fBVFBw/ceGbKJQ4UtgGN1qh7YIelHb3kO
i/t0OW7+4eRfkQv3gOCYa6Oi3m4uRVDp+xZFfTlxIFUPX+USE5lYolA1NbRc4HSu
KFmkzkfFr6XjoRIF5fnG+OCNBZeAikEOiLmGDz8U0arZdZqNny8rbHn2gZ9ryDv0
92+0YYwfzJS7il2ViuzZiRsLL11k/ycZDe4c+S2G1mhXt23GADhw743/gw+nhXJz
tx7yLiWpwHAekMKLftBheDJOOXvYuBwb2oNovG/H+z3ucO6xyvOrko1vLVKWs540
usg+ZWNRJGzZ5g/MNZXiCvIUTKnNpYcG6wIDAQABo4GWMIGTMAkGA1UdEwQCMAAw
HQYDVR0OBBYEFE08ZQPiOQqYb7D3Dv83Z+CBz8X1MEUGA1UdIwQ+MDyAFBl/lTr2
aGIMv52e3k4Fn3GQK6paoRmkFzAVMRMwEQYDVQQDDApMYXphcnVzIENBggkA6v8O
ZPZnn+kwEwYDVR0lBAwwCgYIKwYBBQUHAwIwCwYDVR0PBAQDAgeAMA0GCSqGSIb3
DQEBCwUAA4IBAQDGSQwegNWE3ZaXJV1cLteOBEyUJLOEOXZrr21FhQrw3yPWA0/B
oYUmPaQaG33Ym8Fy1Hw75+yJ7GUBlFQwvCTWOOOPX/6oPYH9R0JVHl5bc1gMiCqg
9B6R8K/SjGZc2yzUwDSYtrsXzHP+Ucfr2t1UBg2crfM+r49gc4E3dSIPYi1xcNYD
SQnJWGDi9RnmoPLz/vwWSdK1iFfY+zam0/IJhAyOpL6xEuKfoJ7E+GCOjW9QSuZz
NslSZ5n5KqeUoujUiK8fFuaIFJt2Lh6BUOM7n5Lo8qAMb1H09yXH/1UjuTx7ixrm
4lJPbZ24vTjSSCgwxzE60n/bfDxRurPHyiKF
-----END CERTIFICATE-----
