Certificate:
    Data:
        Version: 3 (0x2)
        Serial Number:
            45:b8:21:41:5a:ba:87:2a:4c:fe:7e:5f:f7:23:05:57
    Signature Algorithm: sha256WithRSAEncryption
        Issuer: CN=Lazarus CA
        Validity
            Not Before: Apr 24 22:03:49 2019 GMT
            Not After : Apr  8 22:03:49 2022 GMT
        Subject: CN=FREE__Mw__1556143429
        Subject Public Key Info:
            Public Key Algorithm: rsaEncryption
                Public-Key: (2048 bit)
                Modulus:
                    00:b4:8f:45:36:b4:a0:9c:16:16:be:6f:34:04:81:
                    46:29:04:84:f2:61:26:a9:f9:5e:90:a3:45:ad:00:
                    d4:a8:c2:ec:14:59:fe:b6:ab:a0:e0:f6:38:91:91:
                    d1:92:6a:ac:b0:67:84:d5:d1:6c:eb:6b:f9:17:6c:
                    7a:ed:16:43:4c:ea:a0:20:29:23:5c:06:95:17:4c:
                    8c:fd:77:86:30:48:4e:01:92:b3:46:3e:55:51:32:
                    da:05:b3:ca:a7:1b:2a:d5:ac:34:b7:43:fb:d3:26:
                    55:49:62:6f:e2:06:f4:56:e6:9d:43:8d:a7:a2:6d:
                    73:03:48:83:81:82:39:bd:f8:54:04:48:e1:88:07:
                    2b:a5:9f:3c:9c:af:ad:74:b6:8f:94:24:fe:e0:98:
                    28:fa:9e:ff:a5:6c:02:49:96:62:d5:b1:89:13:bd:
                    e9:72:4b:dc:a4:68:b9:75:0c:d6:c9:34:a2:a3:7a:
                    90:eb:aa:a2:39:9b:f9:c1:c7:2a:0f:c5:ed:e2:02:
                    bd:c0:be:ac:c9:e1:7d:af:62:4a:2e:4f:ae:a5:9d:
                    33:14:a7:ae:ac:00:d3:b3:57:a8:04:05:c2:0f:59:
                    17:48:4c:0a:ae:4d:9f:cd:83:32:21:6f:c6:a4:c3:
                    13:f8:94:03:8e:50:a3:2f:5d:95:43:ba:b3:31:63:
                    9e:69
                Exponent: 65537 (0x10001)
        X509v3 extensions:
            X509v3 Basic Constraints: 
                CA:FALSE
            X509v3 Subject Key Identifier: 
                DE:3B:6A:1B:05:73:14:A7:B6:5F:EC:66:56:1E:69:C2:2C:2C:B9:A4
            X509v3 Authority Key Identifier: 
                keyid:19:7F:95:3A:F6:68:62:0C:BF:9D:9E:DE:4E:05:9F:71:90:2B:AA:5A
                DirName:/CN=Lazarus CA
                serial:EA:FF:0E:64:F6:67:9F:E9

            X509v3 Extended Key Usage: 
                TLS Web Client Authentication
            X509v3 Key Usage: 
                Digital Signature
    Signature Algorithm: sha256WithRSAEncryption
         06:4c:52:af:a5:05:af:30:72:43:40:57:91:cd:a5:c0:78:aa:
         d3:cd:ac:f8:f3:c3:58:96:6e:30:09:ff:95:48:1e:e7:27:ae:
         33:c4:3e:bf:77:72:4e:42:40:a5:4c:c8:e4:31:a5:6c:27:b6:
         e3:4a:75:3f:fa:84:1d:8b:81:dc:e2:df:aa:86:fe:26:b7:cc:
         63:6e:c7:cd:60:25:74:9a:cf:9a:03:2b:0c:c8:d0:9c:85:11:
         74:d2:21:ea:57:41:16:52:6e:9a:ab:cf:52:9c:ba:6d:77:7b:
         e2:9a:e6:86:bd:42:d6:9d:05:b2:9a:ac:83:72:8a:59:54:94:
         92:36:5e:ac:d6:6f:c1:a7:e2:bb:6a:42:5e:19:cb:55:7e:46:
         37:06:7f:02:1f:4a:03:8e:6a:c3:16:35:cf:2c:c0:a8:6d:81:
         1e:5e:7d:2d:84:52:12:48:eb:da:b4:41:42:c6:61:b3:cf:82:
         4b:d2:43:2c:52:00:bc:72:08:64:3b:ba:69:dc:00:cf:57:3a:
         21:63:6e:f5:20:c0:16:a4:e2:2f:18:18:33:a5:eb:22:ba:91:
         64:41:76:ba:c8:7a:3d:08:85:dc:50:ee:c6:18:ec:f5:38:0c:
         db:b1:45:a4:19:1e:5f:7b:c1:f8:76:f3:ab:f1:dc:b1:1c:ab:
         63:17:c1:44
-----BEGIN CERTIFICATE-----
MIIDVTCCAj2gAwIBAgIQRbghQVq6hypM/n5f9yMFVzANBgkqhkiG9w0BAQsFADAV
MRMwEQYDVQQDDApMYXphcnVzIENBMB4XDTE5MDQyNDIyMDM0OVoXDTIyMDQwODIy
MDM0OVowHzEdMBsGA1UEAwwURlJFRV9fTXdfXzE1NTYxNDM0MjkwggEiMA0GCSqG
SIb3DQEBAQUAA4IBDwAwggEKAoIBAQC0j0U2tKCcFha+bzQEgUYpBITyYSap+V6Q
o0WtANSowuwUWf62q6Dg9jiRkdGSaqywZ4TV0Wzra/kXbHrtFkNM6qAgKSNcBpUX
TIz9d4YwSE4BkrNGPlVRMtoFs8qnGyrVrDS3Q/vTJlVJYm/iBvRW5p1DjaeibXMD
SIOBgjm9+FQESOGIByulnzycr610to+UJP7gmCj6nv+lbAJJlmLVsYkTvelyS9yk
aLl1DNbJNKKjepDrqqI5m/nBxyoPxe3iAr3AvqzJ4X2vYkouT66lnTMUp66sANOz
V6gEBcIPWRdITAquTZ/NgzIhb8akwxP4lAOOUKMvXZVDurMxY55pAgMBAAGjgZYw
gZMwCQYDVR0TBAIwADAdBgNVHQ4EFgQU3jtqGwVzFKe2X+xmVh5pwiwsuaQwRQYD
VR0jBD4wPIAUGX+VOvZoYgy/nZ7eTgWfcZArqlqhGaQXMBUxEzARBgNVBAMMCkxh
emFydXMgQ0GCCQDq/w5k9mef6TATBgNVHSUEDDAKBggrBgEFBQcDAjALBgNVHQ8E
BAMCB4AwDQYJKoZIhvcNAQELBQADggEBAAZMUq+lBa8wckNAV5HNpcB4qtPNrPjz
w1iWbjAJ/5VIHucnrjPEPr93ck5CQKVMyOQxpWwntuNKdT/6hB2Lgdzi36qG/ia3
zGNux81gJXSaz5oDKwzI0JyFEXTSIepXQRZSbpqrz1Kcum13e+Ka5oa9QtadBbKa
rINyillUlJI2XqzWb8Gn4rtqQl4Zy1V+RjcGfwIfSgOOasMWNc8swKhtgR5efS2E
UhJI69q0QULGYbPPgkvSQyxSALxyCGQ7umncAM9XOiFjbvUgwBak4i8YGDOl6yK6
kWRBdrrIej0IhdxQ7sYY7PU4DNuxRaQZHl97wfh286vx3LEcq2MXwUQ=
-----END CERTIFICATE-----
