Certificate:
    Data:
        Version: 3 (0x2)
        Serial Number:
            49:a3:fc:00:90:10:36:8f:8f:af:22:e7:91:83:47:a8
    Signature Algorithm: sha256WithRSAEncryption
        Issuer: CN=Lazarus CA
        Validity
            Not Before: Apr 26 04:33:01 2019 GMT
            Not After : Apr 10 04:33:01 2022 GMT
        Subject: CN=FREE__Nw__1556253181
        Subject Public Key Info:
            Public Key Algorithm: rsaEncryption
                Public-Key: (2048 bit)
                Modulus:
                    00:b8:8c:6e:3e:26:e4:0b:5f:7f:a0:c6:72:7c:ae:
                    11:4e:87:27:1c:6e:01:2e:84:e5:21:72:81:33:54:
                    07:76:35:8a:e3:e0:d0:07:26:20:46:c2:e1:75:03:
                    69:dd:3c:c7:83:17:6e:8e:e1:d3:37:7c:36:ad:ac:
                    15:97:dd:1b:05:30:9f:17:d5:80:cc:53:2b:bf:9a:
                    24:cb:fa:d8:55:e6:12:79:c2:24:4d:1c:af:39:1c:
                    e0:84:59:dd:a5:02:2d:2c:56:ab:a1:36:7a:89:de:
                    7e:be:4a:ca:e4:6f:52:a7:ab:a4:7a:f3:73:94:d4:
                    96:68:8f:bf:d3:41:c3:82:45:2a:8c:f4:b6:2e:2d:
                    cc:85:2f:03:a2:31:7a:6b:50:e4:5a:02:b7:46:b4:
                    5b:48:a3:4e:08:7a:42:1f:90:24:ff:c2:1c:51:35:
                    c1:32:87:13:8a:9e:0d:bb:45:c5:55:04:b1:14:ef:
                    22:a4:6f:2c:57:cc:dd:4f:48:dd:cb:b8:ba:f8:67:
                    f7:16:ff:bb:a2:ec:b5:79:73:89:f4:36:6e:ca:8e:
                    3c:1b:b0:34:4b:86:21:11:91:eb:36:31:ae:7a:6e:
                    bd:fd:c9:7a:71:b2:17:99:43:5f:b8:67:96:5b:d1:
                    4c:71:68:0e:66:13:7b:7f:61:aa:ef:81:8c:9c:48:
                    53:c7
                Exponent: 65537 (0x10001)
        X509v3 extensions:
            X509v3 Basic Constraints: 
                CA:FALSE
            X509v3 Subject Key Identifier: 
                6D:16:18:89:47:D0:05:64:C3:70:15:71:D8:07:FB:09:D2:AE:1C:E9
            X509v3 Authority Key Identifier: 
                keyid:19:7F:95:3A:F6:68:62:0C:BF:9D:9E:DE:4E:05:9F:71:90:2B:AA:5A
                DirName:/CN=Lazarus CA
                serial:EA:FF:0E:64:F6:67:9F:E9

            X509v3 Extended Key Usage: 
                TLS Web Client Authentication
            X509v3 Key Usage: 
                Digital Signature
    Signature Algorithm: sha256WithRSAEncryption
         31:1b:d2:56:b1:31:6b:d6:18:be:47:c7:4f:cc:fb:3e:51:00:
         8e:76:e3:10:12:b5:88:67:59:f5:5a:ab:9a:7d:c6:73:10:52:
         6e:bf:38:00:0d:b2:93:4e:3f:f8:21:e3:dd:4b:21:ff:9d:05:
         d2:e9:f0:8d:49:ec:81:0e:d1:c8:bc:c2:41:35:a8:8b:4a:eb:
         30:07:73:13:95:a5:70:5f:49:ef:d5:d7:dd:4e:b6:5f:0f:30:
         1f:13:52:7e:5c:c3:cb:30:c3:58:68:ed:e7:c3:bc:1b:00:7f:
         43:03:d4:1e:d2:e0:2b:23:d6:53:5d:77:31:8d:77:22:b4:e1:
         d2:ac:01:2c:b9:0f:1c:c4:a4:52:eb:62:b7:22:26:18:a2:3b:
         34:d5:37:b4:bb:aa:b0:c6:6d:94:75:45:74:03:84:5f:c1:a4:
         08:5d:dd:fb:50:b4:20:b5:4a:5d:d3:25:1b:5f:36:56:e8:ba:
         ae:23:46:6a:c3:40:92:e2:6f:df:c0:e3:c2:5b:44:e0:bf:3d:
         a9:ff:ae:58:13:7a:9f:df:30:86:e5:0e:16:ee:1c:70:c0:c9:
         ab:17:bb:a6:8e:01:53:71:9e:3e:ce:64:8d:d9:b8:1f:04:ec:
         2d:42:8b:65:a8:90:23:6b:c5:ef:d4:7c:8e:01:25:ca:c6:e5:
         c3:ba:e0:4e
-----BEGIN CERTIFICATE-----
MIIDVTCCAj2gAwIBAgIQSaP8AJAQNo+PryLnkYNHqDANBgkqhkiG9w0BAQsFADAV
MRMwEQYDVQQDDApMYXphcnVzIENBMB4XDTE5MDQyNjA0MzMwMVoXDTIyMDQxMDA0
MzMwMVowHzEdMBsGA1UEAwwURlJFRV9fTndfXzE1NTYyNTMxODEwggEiMA0GCSqG
SIb3DQEBAQUAA4IBDwAwggEKAoIBAQC4jG4+JuQLX3+gxnJ8rhFOhyccbgEuhOUh
coEzVAd2NYrj4NAHJiBGwuF1A2ndPMeDF26O4dM3fDatrBWX3RsFMJ8X1YDMUyu/
miTL+thV5hJ5wiRNHK85HOCEWd2lAi0sVquhNnqJ3n6+Ssrkb1Knq6R683OU1JZo
j7/TQcOCRSqM9LYuLcyFLwOiMXprUORaArdGtFtIo04IekIfkCT/whxRNcEyhxOK
ng27RcVVBLEU7yKkbyxXzN1PSN3LuLr4Z/cW/7ui7LV5c4n0Nm7KjjwbsDRLhiER
kes2Ma56br39yXpxsheZQ1+4Z5Zb0UxxaA5mE3t/YarvgYycSFPHAgMBAAGjgZYw
gZMwCQYDVR0TBAIwADAdBgNVHQ4EFgQUbRYYiUfQBWTDcBVx2Af7CdKuHOkwRQYD
VR0jBD4wPIAUGX+VOvZoYgy/nZ7eTgWfcZArqlqhGaQXMBUxEzARBgNVBAMMCkxh
emFydXMgQ0GCCQDq/w5k9mef6TATBgNVHSUEDDAKBggrBgEFBQcDAjALBgNVHQ8E
BAMCB4AwDQYJKoZIhvcNAQELBQADggEBADEb0laxMWvWGL5Hx0/M+z5RAI524xAS
tYhnWfVaq5p9xnMQUm6/OAANspNOP/gh491LIf+dBdLp8I1J7IEO0ci8wkE1qItK
6zAHcxOVpXBfSe/V191Otl8PMB8TUn5cw8sww1ho7efDvBsAf0MD1B7S4Csj1lNd
dzGNdyK04dKsASy5DxzEpFLrYrciJhiiOzTVN7S7qrDGbZR1RXQDhF/BpAhd3ftQ
tCC1Sl3TJRtfNlbouq4jRmrDQJLib9/A48JbROC/Pan/rlgTep/fMIblDhbuHHDA
yasXu6aOAVNxnj7OZI3ZuB8E7C1Ci2WokCNrxe/UfI4BJcrG5cO64E4=
-----END CERTIFICATE-----
