Certificate:
    Data:
        Version: 3 (0x2)
        Serial Number:
            4e:93:6e:68:34:77:cc:9e:e0:bd:5e:bc:76:13:0a:ef
    Signature Algorithm: sha256WithRSAEncryption
        Issuer: CN=Lazarus CA
        Validity
            Not Before: Apr 21 14:29:50 2019 GMT
            Not After : Apr  5 14:29:50 2022 GMT
        Subject: CN=gkumar79
        Subject Public Key Info:
            Public Key Algorithm: rsaEncryption
                Public-Key: (2048 bit)
                Modulus:
                    00:9e:ed:86:13:c6:52:7f:50:33:30:35:17:13:22:
                    d8:4c:5f:36:9f:b8:c2:90:a0:d0:5a:b0:20:ea:77:
                    b1:c4:38:52:09:e0:36:90:ee:38:82:b8:f8:7c:99:
                    f5:01:4f:7b:ed:eb:c0:02:96:fb:b5:10:c0:d3:7a:
                    33:a6:f1:6f:ae:6f:cd:ba:84:19:fc:7e:43:f4:97:
                    dc:50:f9:89:95:e4:72:88:a2:e6:04:b3:dc:19:e8:
                    c0:fa:e8:41:be:e4:1a:3b:a1:13:ff:26:2d:ed:9c:
                    b0:9a:00:84:94:61:cb:18:a0:10:44:23:eb:0c:22:
                    27:4f:90:a9:a7:91:1a:f6:a1:46:d2:9c:04:ed:96:
                    a8:91:83:f4:99:78:dd:78:2d:d8:72:ba:3c:bd:02:
                    0c:23:67:4d:fb:3e:6a:8d:2f:0d:30:97:e1:72:a3:
                    f5:f7:9c:50:1a:62:3d:59:2d:de:18:1a:f2:5d:15:
                    06:fa:43:bf:62:25:d2:b0:a6:5a:a4:62:0f:98:be:
                    97:4f:3b:e0:3c:aa:29:1b:84:3e:dc:0b:42:a2:ed:
                    88:4b:72:d6:3b:f9:bb:7c:1e:90:27:ee:18:21:db:
                    ad:c5:f8:e5:9a:d1:88:e1:01:df:3f:bf:a4:97:62:
                    0c:9d:ad:a5:66:b8:10:55:d2:a3:4a:32:89:c8:19:
                    ce:7d
                Exponent: 65537 (0x10001)
        X509v3 extensions:
            X509v3 Basic Constraints: 
                CA:FALSE
            X509v3 Subject Key Identifier: 
                FB:9D:A6:1C:B3:2F:EE:D4:C7:00:72:13:B2:AD:97:28:3A:28:B0:D8
            X509v3 Authority Key Identifier: 
                keyid:19:7F:95:3A:F6:68:62:0C:BF:9D:9E:DE:4E:05:9F:71:90:2B:AA:5A
                DirName:/CN=Lazarus CA
                serial:EA:FF:0E:64:F6:67:9F:E9

            X509v3 Extended Key Usage: 
                TLS Web Client Authentication
            X509v3 Key Usage: 
                Digital Signature
    Signature Algorithm: sha256WithRSAEncryption
         0b:45:77:9a:a4:7f:c5:98:e4:5a:71:cd:cd:e7:1e:a2:97:ab:
         b4:ca:b1:2d:2d:82:18:88:ab:16:91:5f:7c:b9:4c:62:60:d5:
         e9:c4:f6:79:db:f5:90:62:d6:a7:aa:5d:d8:fb:34:fa:98:23:
         34:b8:ec:5e:5e:32:8e:99:22:02:65:c5:dc:27:9b:7f:77:1f:
         27:15:5d:de:6f:32:47:e5:3c:9f:ad:38:dc:83:09:c9:20:19:
         9e:d2:e1:12:d3:61:e7:1b:bb:25:b2:da:5d:63:b1:3b:07:a2:
         c0:fc:82:8a:33:15:b6:61:7d:20:8c:65:86:31:aa:03:50:7d:
         a8:e0:41:8b:e1:92:ab:ee:ba:cd:a7:67:f4:fe:05:ce:0e:01:
         60:3a:26:ac:33:3f:b5:48:70:64:c3:72:d8:71:cf:85:c1:3c:
         b5:7e:8a:83:e1:1e:e7:93:5f:1e:92:7a:1e:6b:61:0f:87:79:
         d5:24:55:f1:f6:9d:49:32:8f:bb:04:c6:59:36:5a:80:75:32:
         92:66:67:83:af:21:1c:cb:68:e2:fb:fc:85:06:2a:48:60:8f:
         54:58:e9:31:2b:22:69:d2:02:ad:c9:ee:56:76:12:ef:7e:4f:
         0c:4c:92:78:40:2e:6c:0d:eb:dd:12:2c:27:33:e0:eb:f8:8c:
         9f:84:f2:c1
-----BEGIN CERTIFICATE-----
MIIDSTCCAjGgAwIBAgIQTpNuaDR3zJ7gvV68dhMK7zANBgkqhkiG9w0BAQsFADAV
MRMwEQYDVQQDDApMYXphcnVzIENBMB4XDTE5MDQyMTE0Mjk1MFoXDTIyMDQwNTE0
Mjk1MFowEzERMA8GA1UEAwwIZ2t1bWFyNzkwggEiMA0GCSqGSIb3DQEBAQUAA4IB
DwAwggEKAoIBAQCe7YYTxlJ/UDMwNRcTIthMXzafuMKQoNBasCDqd7HEOFIJ4DaQ
7jiCuPh8mfUBT3vt68AClvu1EMDTejOm8W+ub826hBn8fkP0l9xQ+YmV5HKIouYE
s9wZ6MD66EG+5Bo7oRP/Ji3tnLCaAISUYcsYoBBEI+sMIidPkKmnkRr2oUbSnATt
lqiRg/SZeN14Ldhyujy9AgwjZ037PmqNLw0wl+Fyo/X3nFAaYj1ZLd4YGvJdFQb6
Q79iJdKwplqkYg+YvpdPO+A8qikbhD7cC0Ki7YhLctY7+bt8HpAn7hgh263F+OWa
0YjhAd8/v6SXYgydraVmuBBV0qNKMonIGc59AgMBAAGjgZYwgZMwCQYDVR0TBAIw
ADAdBgNVHQ4EFgQU+52mHLMv7tTHAHITsq2XKDoosNgwRQYDVR0jBD4wPIAUGX+V
OvZoYgy/nZ7eTgWfcZArqlqhGaQXMBUxEzARBgNVBAMMCkxhemFydXMgQ0GCCQDq
/w5k9mef6TATBgNVHSUEDDAKBggrBgEFBQcDAjALBgNVHQ8EBAMCB4AwDQYJKoZI
hvcNAQELBQADggEBAAtFd5qkf8WY5Fpxzc3nHqKXq7TKsS0tghiIqxaRX3y5TGJg
1enE9nnb9ZBi1qeqXdj7NPqYIzS47F5eMo6ZIgJlxdwnm393HycVXd5vMkflPJ+t
ONyDCckgGZ7S4RLTYecbuyWy2l1jsTsHosD8goozFbZhfSCMZYYxqgNQfajgQYvh
kqvuus2nZ/T+Bc4OAWA6JqwzP7VIcGTDcthxz4XBPLV+ioPhHueTXx6Seh5rYQ+H
edUkVfH2nUkyj7sExlk2WoB1MpJmZ4OvIRzLaOL7/IUGKkhgj1RY6TErImnSAq3J
7lZ2Eu9+TwxMknhALmwN690SLCcz4Ov4jJ+E8sE=
-----END CERTIFICATE-----
