Certificate:
    Data:
        Version: 3 (0x2)
        Serial Number:
            64:48:f9:a7:cd:1f:29:74:d4:1f:b5:5a:40:d6:1a:12
    Signature Algorithm: sha256WithRSAEncryption
        Issuer: CN=Lazarus CA
        Validity
            Not Before: Mar 26 17:01:30 2019 GMT
            Not After : Mar 10 17:01:30 2022 GMT
        Subject: CN=ansm
        Subject Public Key Info:
            Public Key Algorithm: rsaEncryption
                Public-Key: (2048 bit)
                Modulus:
                    00:a4:5f:41:43:40:a4:cf:4f:98:0b:31:d1:5c:60:
                    c8:49:bb:73:c9:76:e6:c9:3a:5a:2c:ab:38:79:24:
                    69:4c:73:fc:61:f6:b3:09:a2:28:c9:1d:8a:5a:1b:
                    18:d3:48:27:e2:18:8f:bf:e5:46:2a:ad:23:78:3f:
                    43:32:f1:e5:22:3d:cb:4f:c1:04:41:8a:1e:b6:e5:
                    5e:f7:dc:eb:8e:f0:0d:70:c0:9b:6b:dd:0d:33:83:
                    a0:7f:7d:ed:af:39:a4:54:5f:78:ef:32:87:67:c9:
                    04:64:ba:9c:f4:c2:cf:67:e5:9d:1c:5d:33:e5:4d:
                    14:8b:80:11:b5:a5:3e:e7:4c:e7:2e:d4:11:2f:b3:
                    5a:98:99:03:7c:3b:53:6d:53:8b:ad:49:32:6b:84:
                    a5:fb:d6:57:60:59:2b:c8:3e:69:a3:aa:57:ee:88:
                    88:17:44:89:b5:4b:81:6f:59:97:40:68:6e:2a:dc:
                    f8:c4:cd:7e:2c:b8:91:9b:37:f9:4b:3e:0d:28:9e:
                    08:35:ab:41:d7:4d:a9:70:10:7d:48:c4:02:f7:d8:
                    de:9b:52:91:29:ac:c1:3b:74:57:40:3c:22:e6:f4:
                    63:a0:82:12:2d:d3:d8:08:65:a6:7f:60:54:a1:f7:
                    0f:6f:48:5d:04:b4:90:3e:e5:5e:b8:03:94:e5:79:
                    6d:df
                Exponent: 65537 (0x10001)
        X509v3 extensions:
            X509v3 Basic Constraints: 
                CA:FALSE
            X509v3 Subject Key Identifier: 
                59:77:A4:A7:51:B8:6D:09:74:D6:3A:8F:60:D6:D9:85:65:6B:11:7A
            X509v3 Authority Key Identifier: 
                keyid:19:7F:95:3A:F6:68:62:0C:BF:9D:9E:DE:4E:05:9F:71:90:2B:AA:5A
                DirName:/CN=Lazarus CA
                serial:EA:FF:0E:64:F6:67:9F:E9

            X509v3 Extended Key Usage: 
                TLS Web Client Authentication
            X509v3 Key Usage: 
                Digital Signature
    Signature Algorithm: sha256WithRSAEncryption
         3c:c3:fb:ce:e1:52:1d:1b:dd:77:68:8e:20:52:77:00:10:35:
         e8:82:7c:00:06:62:c2:01:0e:1d:8f:db:db:7e:77:be:5c:fc:
         df:eb:4e:88:d5:87:65:2b:af:85:5a:d8:f6:e1:d1:40:5e:c9:
         77:4f:c1:b3:88:8b:bd:88:e0:58:14:ca:a8:8b:dc:ee:ad:72:
         c2:22:5d:ea:1a:08:80:c7:fa:14:57:e3:7f:73:0e:b8:ed:31:
         0f:3b:8c:bd:4d:40:5a:3e:04:b9:a3:92:25:70:c2:05:f9:44:
         8a:92:72:5c:a3:a3:14:c9:dc:63:38:44:ce:91:a2:2d:09:39:
         cf:fd:a2:71:e7:66:26:d2:4f:9c:32:72:12:d5:11:a7:3b:c0:
         24:70:3f:55:23:85:22:f2:92:8a:9a:90:66:08:9d:57:5e:5d:
         5e:a1:e5:06:3f:15:7f:f6:3a:6f:8e:12:af:57:64:f3:4c:38:
         85:dc:f8:43:b9:f5:a5:94:50:70:47:fd:41:23:33:7f:d3:28:
         5d:fb:9e:b2:7d:e4:33:15:bc:02:5d:5a:1a:d3:0e:73:4b:06:
         ef:1d:a0:4c:dc:2c:d0:2b:dc:d4:33:2d:90:e3:63:21:54:6d:
         3f:74:e3:1e:29:5a:a0:bf:75:26:bb:c2:cf:96:b8:90:01:8b:
         fc:76:b1:13
-----BEGIN CERTIFICATE-----
MIIDRTCCAi2gAwIBAgIQZEj5p80fKXTUH7VaQNYaEjANBgkqhkiG9w0BAQsFADAV
MRMwEQYDVQQDDApMYXphcnVzIENBMB4XDTE5MDMyNjE3MDEzMFoXDTIyMDMxMDE3
MDEzMFowDzENMAsGA1UEAwwEYW5zbTCCASIwDQYJKoZIhvcNAQEBBQADggEPADCC
AQoCggEBAKRfQUNApM9PmAsx0VxgyEm7c8l25sk6WiyrOHkkaUxz/GH2swmiKMkd
ilobGNNIJ+IYj7/lRiqtI3g/QzLx5SI9y0/BBEGKHrblXvfc647wDXDAm2vdDTOD
oH997a85pFRfeO8yh2fJBGS6nPTCz2flnRxdM+VNFIuAEbWlPudM5y7UES+zWpiZ
A3w7U21Ti61JMmuEpfvWV2BZK8g+aaOqV+6IiBdEibVLgW9Zl0Bobirc+MTNfiy4
kZs3+Us+DSieCDWrQddNqXAQfUjEAvfY3ptSkSmswTt0V0A8Iub0Y6CCEi3T2Ahl
pn9gVKH3D29IXQS0kD7lXrgDlOV5bd8CAwEAAaOBljCBkzAJBgNVHRMEAjAAMB0G
A1UdDgQWBBRZd6SnUbhtCXTWOo9g1tmFZWsRejBFBgNVHSMEPjA8gBQZf5U69mhi
DL+dnt5OBZ9xkCuqWqEZpBcwFTETMBEGA1UEAwwKTGF6YXJ1cyBDQYIJAOr/DmT2
Z5/pMBMGA1UdJQQMMAoGCCsGAQUFBwMCMAsGA1UdDwQEAwIHgDANBgkqhkiG9w0B
AQsFAAOCAQEAPMP7zuFSHRvdd2iOIFJ3ABA16IJ8AAZiwgEOHY/b2353vlz83+tO
iNWHZSuvhVrY9uHRQF7Jd0/Bs4iLvYjgWBTKqIvc7q1ywiJd6hoIgMf6FFfjf3MO
uO0xDzuMvU1AWj4EuaOSJXDCBflEipJyXKOjFMncYzhEzpGiLQk5z/2icedmJtJP
nDJyEtURpzvAJHA/VSOFIvKSipqQZgidV15dXqHlBj8Vf/Y6b44Sr1dk80w4hdz4
Q7n1pZRQcEf9QSMzf9MoXfuesn3kMxW8Al1aGtMOc0sG7x2gTNws0Cvc1DMtkONj
IVRtP3TjHilaoL91JrvCz5a4kAGL/HaxEw==
-----END CERTIFICATE-----
