Certificate:
    Data:
        Version: 3 (0x2)
        Serial Number:
            66:a7:74:cb:39:58:63:e8:f7:52:45:2e:7a:5b:3c:30
    Signature Algorithm: sha256WithRSAEncryption
        Issuer: CN=Lazarus CA
        Validity
            Not Before: Apr 24 19:07:49 2019 GMT
            Not After : Apr  8 19:07:49 2022 GMT
        Subject: CN=FREE-Mw-3
        Subject Public Key Info:
            Public Key Algorithm: rsaEncryption
                Public-Key: (2048 bit)
                Modulus:
                    00:c9:19:f9:de:4b:a4:21:26:02:93:d2:75:a1:43:
                    72:f0:af:dd:84:2d:bc:00:c8:6d:30:e0:03:ad:e4:
                    0f:72:e7:d1:85:4d:84:2a:1e:7b:b5:cf:75:21:17:
                    07:80:d1:c3:bd:b7:0e:f4:20:7d:2e:2b:d9:28:5f:
                    7e:7d:7f:ad:1f:61:8e:a9:31:08:29:5f:ff:df:82:
                    c5:98:f7:55:ac:52:9c:36:63:90:00:1e:2c:55:60:
                    5d:97:8e:35:65:96:87:8c:3d:49:0e:5f:51:c6:02:
                    2f:02:fc:3b:5c:f3:a6:71:19:bf:c6:8d:32:40:db:
                    b5:d6:d9:40:5d:fd:68:7d:60:3e:4e:a9:6e:9c:a0:
                    23:a5:21:b8:ef:c1:cf:b1:9b:37:af:e5:1a:e2:42:
                    31:20:c4:8c:ca:0c:86:cc:a6:82:d2:4b:40:18:4d:
                    3f:ec:ca:5f:80:d8:a1:d5:e4:68:71:07:75:3a:cc:
                    25:2d:38:cd:6c:57:8f:2e:53:29:08:40:d9:9c:75:
                    86:1f:3d:d2:7d:85:95:ed:bb:3f:78:27:e8:36:12:
                    f9:f7:48:95:a0:56:78:c1:cf:e0:b5:ad:aa:e6:7d:
                    c0:71:ba:b1:f7:8d:4c:01:a3:a5:f6:8a:03:cb:4f:
                    a1:cc:6b:da:e7:2a:95:5a:14:a3:ca:b5:af:fa:48:
                    3e:2d
                Exponent: 65537 (0x10001)
        X509v3 extensions:
            X509v3 Basic Constraints: 
                CA:FALSE
            X509v3 Subject Key Identifier: 
                DD:C5:80:6F:BB:5D:FE:91:A6:16:9B:CB:7B:19:AD:9A:78:0A:6F:3D
            X509v3 Authority Key Identifier: 
                keyid:19:7F:95:3A:F6:68:62:0C:BF:9D:9E:DE:4E:05:9F:71:90:2B:AA:5A
                DirName:/CN=Lazarus CA
                serial:EA:FF:0E:64:F6:67:9F:E9

            X509v3 Extended Key Usage: 
                TLS Web Client Authentication
            X509v3 Key Usage: 
                Digital Signature
    Signature Algorithm: sha256WithRSAEncryption
         1e:96:2b:cd:c2:7d:27:24:83:01:f3:fa:ac:32:a7:82:40:a1:
         c2:98:d8:42:90:b8:83:94:13:b8:3d:32:c1:46:9f:98:70:12:
         54:25:2c:11:3b:01:95:5b:33:cf:61:6e:8f:6a:c3:07:a5:b4:
         18:20:34:87:86:4f:18:87:60:bc:74:2e:d3:ed:9d:90:99:96:
         a6:ce:bb:6d:68:b0:72:90:47:6e:de:d4:22:17:78:58:63:81:
         13:6b:5f:d2:53:55:5c:46:63:35:aa:da:df:ea:dc:c9:91:ae:
         b9:0a:6f:5c:20:a2:13:38:16:03:3a:a0:03:a9:cf:f1:9e:96:
         7f:93:8d:fa:9c:88:91:ab:69:30:44:7a:5c:c2:46:28:76:da:
         49:41:6d:dc:c3:e2:33:b5:b6:f5:ff:4e:42:51:83:3d:aa:67:
         4c:9e:a0:3f:12:d9:db:62:9c:d1:47:63:90:5b:f9:23:91:43:
         c8:d9:f9:2b:2f:d0:f0:75:97:b8:29:41:e9:3c:18:45:7c:88:
         58:df:8f:c1:66:7f:6b:0c:ac:f4:85:e1:23:7f:ec:dd:53:15:
         73:f6:8f:4a:af:e7:38:d1:fe:f4:18:bb:07:16:c1:cb:d4:e9:
         b1:f2:b1:f7:09:ed:b4:a5:7c:12:a7:58:5e:c1:f7:d0:d6:20:
         d6:79:65:f5
-----BEGIN CERTIFICATE-----
MIIDSjCCAjKgAwIBAgIQZqd0yzlYY+j3UkUuels8MDANBgkqhkiG9w0BAQsFADAV
MRMwEQYDVQQDDApMYXphcnVzIENBMB4XDTE5MDQyNDE5MDc0OVoXDTIyMDQwODE5
MDc0OVowFDESMBAGA1UEAwwJRlJFRS1Ndy0zMIIBIjANBgkqhkiG9w0BAQEFAAOC
AQ8AMIIBCgKCAQEAyRn53kukISYCk9J1oUNy8K/dhC28AMhtMOADreQPcufRhU2E
Kh57tc91IRcHgNHDvbcO9CB9LivZKF9+fX+tH2GOqTEIKV//34LFmPdVrFKcNmOQ
AB4sVWBdl441ZZaHjD1JDl9RxgIvAvw7XPOmcRm/xo0yQNu11tlAXf1ofWA+Tqlu
nKAjpSG478HPsZs3r+Ua4kIxIMSMygyGzKaC0ktAGE0/7MpfgNih1eRocQd1Oswl
LTjNbFePLlMpCEDZnHWGHz3SfYWV7bs/eCfoNhL590iVoFZ4wc/gta2q5n3Acbqx
941MAaOl9ooDy0+hzGva5yqVWhSjyrWv+kg+LQIDAQABo4GWMIGTMAkGA1UdEwQC
MAAwHQYDVR0OBBYEFN3FgG+7Xf6Rphaby3sZrZp4Cm89MEUGA1UdIwQ+MDyAFBl/
lTr2aGIMv52e3k4Fn3GQK6paoRmkFzAVMRMwEQYDVQQDDApMYXphcnVzIENBggkA
6v8OZPZnn+kwEwYDVR0lBAwwCgYIKwYBBQUHAwIwCwYDVR0PBAQDAgeAMA0GCSqG
SIb3DQEBCwUAA4IBAQAelivNwn0nJIMB8/qsMqeCQKHCmNhCkLiDlBO4PTLBRp+Y
cBJUJSwROwGVWzPPYW6PasMHpbQYIDSHhk8Yh2C8dC7T7Z2QmZamzrttaLBykEdu
3tQiF3hYY4ETa1/SU1VcRmM1qtrf6tzJka65Cm9cIKITOBYDOqADqc/xnpZ/k436
nIiRq2kwRHpcwkYodtpJQW3cw+Iztbb1/05CUYM9qmdMnqA/EtnbYpzRR2OQW/kj
kUPI2fkrL9DwdZe4KUHpPBhFfIhY34/BZn9rDKz0heEjf+zdUxVz9o9Kr+c40f70
GLsHFsHL1Omx8rH3Ce20pXwSp1hewffQ1iDWeWX1
-----END CERTIFICATE-----
