Certificate:
    Data:
        Version: 3 (0x2)
        Serial Number:
            69:e0:6f:0b:3c:1b:66:9e:43:61:c5:cf:60:c9:9e:f8
    Signature Algorithm: sha256WithRSAEncryption
        Issuer: CN=Lazarus CA
        Validity
            Not Before: Apr 24 19:10:25 2019 GMT
            Not After : Apr  8 19:10:25 2022 GMT
        Subject: CN=FREE-Mw-5
        Subject Public Key Info:
            Public Key Algorithm: rsaEncryption
                Public-Key: (2048 bit)
                Modulus:
                    00:ae:98:a9:dc:16:7b:73:95:cd:e8:4b:31:cc:a8:
                    d3:e4:11:1b:13:d3:cc:d4:d2:b1:17:09:c7:2a:d2:
                    7a:f5:f7:93:f6:c4:d9:05:b8:fe:01:70:f0:87:c7:
                    a2:fe:e3:84:47:11:ae:1d:f0:b0:ce:7e:41:28:ca:
                    44:cb:7f:f9:ca:19:0d:5e:5b:db:25:5a:01:37:99:
                    3b:b9:fe:d3:18:f9:0a:c3:40:cd:4a:88:ec:17:ef:
                    ed:38:fc:35:5e:23:30:21:7b:53:18:e6:47:4e:ab:
                    07:3a:55:7a:f0:34:d4:99:3c:74:6a:b6:56:ee:c2:
                    2b:d6:41:87:20:d0:aa:5a:84:3b:fc:85:83:27:05:
                    ea:06:2b:65:bc:3c:f7:61:ce:ff:b2:1c:41:14:00:
                    eb:7e:10:4b:c7:59:81:3f:a6:46:7a:d5:d6:f6:20:
                    13:2c:6b:53:4b:65:53:5f:6d:d4:5f:47:7d:ec:1d:
                    b1:e4:bd:0d:72:a7:27:e7:72:1a:75:fc:31:39:25:
                    f7:69:22:95:11:74:8a:58:0e:89:f5:93:20:a6:b8:
                    12:f9:98:0a:3f:a3:4e:dd:92:65:17:04:75:30:8d:
                    27:45:a8:31:8c:df:74:99:b2:9e:51:bd:7e:26:fe:
                    76:19:e0:05:a4:3a:39:73:77:30:35:b1:5c:f3:2f:
                    d9:b9
                Exponent: 65537 (0x10001)
        X509v3 extensions:
            X509v3 Basic Constraints: 
                CA:FALSE
            X509v3 Subject Key Identifier: 
                E4:AA:F9:4B:5E:39:46:75:FB:43:EC:F8:DB:82:0F:61:FB:22:3B:38
            X509v3 Authority Key Identifier: 
                keyid:19:7F:95:3A:F6:68:62:0C:BF:9D:9E:DE:4E:05:9F:71:90:2B:AA:5A
                DirName:/CN=Lazarus CA
                serial:EA:FF:0E:64:F6:67:9F:E9

            X509v3 Extended Key Usage: 
                TLS Web Client Authentication
            X509v3 Key Usage: 
                Digital Signature
    Signature Algorithm: sha256WithRSAEncryption
         56:ba:91:f1:9d:7b:14:01:53:09:f2:0c:fd:b1:3b:05:5c:76:
         7d:15:0b:17:90:a8:e7:25:25:89:6b:ed:e2:98:08:55:ca:f0:
         ac:4a:0b:88:bd:e0:75:85:37:21:f7:fc:c5:05:0c:57:ad:61:
         0a:52:d9:52:5d:30:03:18:db:41:f3:3f:ca:c8:1b:a7:f9:28:
         ee:63:46:30:fd:49:c9:a2:2b:21:82:6d:76:9a:8f:d5:31:d3:
         ba:54:b6:fa:de:bd:ab:da:a7:c6:7c:65:3e:40:b3:d5:42:25:
         c2:1e:75:30:c6:6a:88:0d:b3:1f:60:9e:64:d4:c6:ef:d7:b8:
         0d:6d:2a:e7:9f:c8:c1:69:b9:4b:a0:c6:03:e3:c6:1d:27:99:
         98:67:84:dc:a8:56:1f:a8:8e:d1:15:cd:25:e6:52:b8:51:09:
         47:c3:a9:b4:3f:fd:03:29:f9:7f:1b:3c:e5:d7:b4:de:e9:3b:
         c6:f1:8e:32:aa:17:a4:8f:36:37:c8:e6:b6:34:e5:f4:3f:58:
         68:bb:58:ff:72:d3:60:24:3c:21:10:77:dd:2c:47:5c:a2:29:
         ad:75:fd:9c:8d:3e:d6:cd:71:06:3f:87:14:10:56:0c:7b:d1:
         38:ca:c3:e6:35:18:69:74:5b:bf:8f:b9:99:ce:7d:2e:5f:84:
         13:60:dd:39
-----BEGIN CERTIFICATE-----
MIIDSjCCAjKgAwIBAgIQaeBvCzwbZp5DYcXPYMme+DANBgkqhkiG9w0BAQsFADAV
MRMwEQYDVQQDDApMYXphcnVzIENBMB4XDTE5MDQyNDE5MTAyNVoXDTIyMDQwODE5
MTAyNVowFDESMBAGA1UEAwwJRlJFRS1Ndy01MIIBIjANBgkqhkiG9w0BAQEFAAOC
AQ8AMIIBCgKCAQEArpip3BZ7c5XN6EsxzKjT5BEbE9PM1NKxFwnHKtJ69feT9sTZ
Bbj+AXDwh8ei/uOERxGuHfCwzn5BKMpEy3/5yhkNXlvbJVoBN5k7uf7TGPkKw0DN
SojsF+/tOPw1XiMwIXtTGOZHTqsHOlV68DTUmTx0arZW7sIr1kGHINCqWoQ7/IWD
JwXqBitlvDz3Yc7/shxBFADrfhBLx1mBP6ZGetXW9iATLGtTS2VTX23UX0d97B2x
5L0Ncqcn53IadfwxOSX3aSKVEXSKWA6J9ZMgprgS+ZgKP6NO3ZJlFwR1MI0nRagx
jN90mbKeUb1+Jv52GeAFpDo5c3cwNbFc8y/ZuQIDAQABo4GWMIGTMAkGA1UdEwQC
MAAwHQYDVR0OBBYEFOSq+UteOUZ1+0Ps+NuCD2H7Ijs4MEUGA1UdIwQ+MDyAFBl/
lTr2aGIMv52e3k4Fn3GQK6paoRmkFzAVMRMwEQYDVQQDDApMYXphcnVzIENBggkA
6v8OZPZnn+kwEwYDVR0lBAwwCgYIKwYBBQUHAwIwCwYDVR0PBAQDAgeAMA0GCSqG
SIb3DQEBCwUAA4IBAQBWupHxnXsUAVMJ8gz9sTsFXHZ9FQsXkKjnJSWJa+3imAhV
yvCsSguIveB1hTch9/zFBQxXrWEKUtlSXTADGNtB8z/KyBun+SjuY0Yw/UnJoish
gm12mo/VMdO6VLb63r2r2qfGfGU+QLPVQiXCHnUwxmqIDbMfYJ5k1Mbv17gNbSrn
n8jBablLoMYD48YdJ5mYZ4TcqFYfqI7RFc0l5lK4UQlHw6m0P/0DKfl/Gzzl17Te
6TvG8Y4yqhekjzY3yOa2NOX0P1hou1j/ctNgJDwhEHfdLEdcoimtdf2cjT7WzXEG
P4cUEFYMe9E4ysPmNRhpdFu/j7mZzn0uX4QTYN05
-----END CERTIFICATE-----
