Certificate:
    Data:
        Version: 3 (0x2)
        Serial Number:
            7c:ec:f4:9d:7d:9b:d6:84:1d:f0:f8:c4:e0:6d:8b:60
    Signature Algorithm: sha256WithRSAEncryption
        Issuer: CN=Lazarus CA
        Validity
            Not Before: Apr  6 14:02:49 2019 GMT
            Not After : Mar 21 14:02:49 2022 GMT
        Subject: CN=test11
        Subject Public Key Info:
            Public Key Algorithm: rsaEncryption
                Public-Key: (2048 bit)
                Modulus:
                    00:cf:06:84:08:fb:31:96:f9:53:ee:21:d6:8b:f3:
                    5f:7d:ff:2e:e0:95:63:03:00:e1:ac:e8:ca:6d:12:
                    a1:e6:05:c0:b0:8e:9b:f9:90:69:3e:44:0b:ff:ba:
                    ef:e5:c1:dc:44:93:8b:e9:eb:ea:fa:66:c2:c8:c6:
                    aa:49:be:97:cb:48:11:59:b8:c8:df:a2:11:fa:65:
                    04:19:5f:0e:ab:53:0c:c4:44:55:fd:b0:5c:ec:05:
                    56:31:7e:8e:e4:9c:af:dd:95:bb:4d:cc:e4:ec:bc:
                    d7:f7:1e:39:e5:80:d2:72:7e:22:f7:c8:4f:88:7d:
                    f2:62:11:62:94:c5:29:96:c4:1b:57:46:73:f8:fe:
                    31:d2:68:f0:f5:a3:79:ab:91:08:cb:fe:2e:7e:28:
                    3a:93:79:17:3e:6a:8a:6d:e4:9c:ef:f5:82:ac:91:
                    91:12:6b:82:6a:9a:2d:52:61:91:2f:ab:29:eb:df:
                    fe:b2:96:cc:41:fe:36:f3:0d:40:a4:f0:9f:da:27:
                    a1:94:a4:c6:50:18:ab:d0:36:7e:67:9d:f7:9c:75:
                    0c:6e:55:2b:2c:81:a1:6e:8e:79:a8:9f:e8:a1:33:
                    09:6b:53:68:82:c1:b3:3f:5d:c2:6c:86:6c:73:2d:
                    d6:ff:a6:fb:c9:df:3a:b8:9d:51:ac:91:45:4a:29:
                    1e:49
                Exponent: 65537 (0x10001)
        X509v3 extensions:
            X509v3 Basic Constraints: 
                CA:FALSE
            X509v3 Subject Key Identifier: 
                41:B2:8C:AD:3A:26:95:99:6C:D9:60:50:88:D8:A8:B1:45:5C:E2:C0
            X509v3 Authority Key Identifier: 
                keyid:19:7F:95:3A:F6:68:62:0C:BF:9D:9E:DE:4E:05:9F:71:90:2B:AA:5A
                DirName:/CN=Lazarus CA
                serial:EA:FF:0E:64:F6:67:9F:E9

            X509v3 Extended Key Usage: 
                TLS Web Client Authentication
            X509v3 Key Usage: 
                Digital Signature
    Signature Algorithm: sha256WithRSAEncryption
         75:96:2f:42:80:20:09:4e:a3:b9:b8:42:f8:82:eb:41:83:25:
         71:a0:06:21:1b:65:63:46:41:42:01:ae:ff:e8:71:7c:2c:53:
         ba:44:01:71:f3:78:db:4c:7c:89:a6:9f:74:ac:fc:25:18:09:
         c2:bd:86:31:fc:87:38:4b:5b:23:27:88:01:71:2c:1a:a0:54:
         48:aa:7d:5e:ba:15:d6:7a:f3:b4:8a:35:81:69:ec:47:a7:56:
         01:ea:95:88:ab:a8:94:f4:ff:a9:f9:7e:63:d6:43:04:6e:4d:
         71:29:51:77:3e:ce:c3:9d:8c:a5:5a:b5:85:f6:37:5a:97:eb:
         7a:38:c2:4a:2c:83:74:8e:69:08:e9:99:53:98:34:9c:ba:52:
         be:c1:ba:de:77:9a:44:2d:6d:87:0b:32:a9:b0:89:c8:db:ec:
         21:c1:ee:b3:17:64:6b:85:2c:c5:e9:c4:3d:a4:44:14:61:ab:
         8d:bc:de:0f:1f:6d:cb:75:57:e8:ed:00:39:50:ed:61:7e:f8:
         95:12:d2:5a:18:af:26:d7:37:b0:8f:e1:14:63:1f:03:39:2a:
         e3:7a:d7:44:e9:71:75:ce:75:dc:74:46:d8:6e:15:35:09:e4:
         94:12:38:08:0b:80:37:7e:04:56:a1:63:ce:81:df:84:f9:39:
         d2:13:89:63
-----BEGIN CERTIFICATE-----
MIIDRzCCAi+gAwIBAgIQfOz0nX2b1oQd8PjE4G2LYDANBgkqhkiG9w0BAQsFADAV
MRMwEQYDVQQDDApMYXphcnVzIENBMB4XDTE5MDQwNjE0MDI0OVoXDTIyMDMyMTE0
MDI0OVowETEPMA0GA1UEAwwGdGVzdDExMIIBIjANBgkqhkiG9w0BAQEFAAOCAQ8A
MIIBCgKCAQEAzwaECPsxlvlT7iHWi/Nfff8u4JVjAwDhrOjKbRKh5gXAsI6b+ZBp
PkQL/7rv5cHcRJOL6evq+mbCyMaqSb6Xy0gRWbjI36IR+mUEGV8Oq1MMxERV/bBc
7AVWMX6O5Jyv3ZW7Tczk7LzX9x455YDScn4i98hPiH3yYhFilMUplsQbV0Zz+P4x
0mjw9aN5q5EIy/4ufig6k3kXPmqKbeSc7/WCrJGREmuCapotUmGRL6sp69/+spbM
Qf428w1ApPCf2iehlKTGUBir0DZ+Z533nHUMblUrLIGhbo55qJ/ooTMJa1NogsGz
P13CbIZscy3W/6b7yd86uJ1RrJFFSikeSQIDAQABo4GWMIGTMAkGA1UdEwQCMAAw
HQYDVR0OBBYEFEGyjK06JpWZbNlgUIjYqLFFXOLAMEUGA1UdIwQ+MDyAFBl/lTr2
aGIMv52e3k4Fn3GQK6paoRmkFzAVMRMwEQYDVQQDDApMYXphcnVzIENBggkA6v8O
ZPZnn+kwEwYDVR0lBAwwCgYIKwYBBQUHAwIwCwYDVR0PBAQDAgeAMA0GCSqGSIb3
DQEBCwUAA4IBAQB1li9CgCAJTqO5uEL4gutBgyVxoAYhG2VjRkFCAa7/6HF8LFO6
RAFx83jbTHyJpp90rPwlGAnCvYYx/Ic4S1sjJ4gBcSwaoFRIqn1euhXWevO0ijWB
aexHp1YB6pWIq6iU9P+p+X5j1kMEbk1xKVF3Ps7DnYylWrWF9jdal+t6OMJKLIN0
jmkI6ZlTmDSculK+wbred5pELW2HCzKpsInI2+whwe6zF2RrhSzF6cQ9pEQUYauN
vN4PH23LdVfo7QA5UO1hfviVEtJaGK8m1zewj+EUYx8DOSrjetdE6XF1znXcdEbY
bhU1CeSUEjgIC4A3fgRWoWPOgd+E+TnSE4lj
-----END CERTIFICATE-----
