Certificate:
    Data:
        Version: 3 (0x2)
        Serial Number:
            8a:f9:9c:52:d9:71:f0:dd:17:74:8f:44:11:25:5c:01
    Signature Algorithm: sha256WithRSAEncryption
        Issuer: CN=Lazarus CA
        Validity
            Not Before: Mar 27 15:32:16 2019 GMT
            Not After : Mar 11 15:32:16 2022 GMT
        Subject: CN=test9
        Subject Public Key Info:
            Public Key Algorithm: rsaEncryption
                Public-Key: (2048 bit)
                Modulus:
                    00:cf:f4:bf:5a:68:40:1e:96:cd:eb:71:23:a8:7c:
                    3f:49:12:bd:b1:4c:11:75:08:19:02:5c:b0:10:28:
                    8c:51:c6:65:85:de:db:e6:89:d9:9f:e8:71:bd:75:
                    0d:23:2f:d2:ca:68:bb:c3:90:50:3c:10:26:b8:42:
                    d1:54:6b:82:45:6e:96:dd:be:47:74:6c:1d:90:28:
                    4d:03:3f:3a:5c:ce:bb:41:49:35:b6:f3:b1:4f:7c:
                    2c:cb:ba:d8:b2:64:77:13:ad:83:5b:bd:e1:36:c2:
                    8b:09:bb:d4:2e:0f:d0:2b:a6:0a:e3:90:f7:5c:cf:
                    0e:d1:d7:75:8f:df:68:3a:ab:c6:69:c6:3f:f9:93:
                    ef:cf:28:f3:bc:d4:05:6a:79:dc:66:03:57:4a:80:
                    a7:de:e9:12:cc:18:95:05:d7:36:12:92:bf:ad:06:
                    a3:b1:84:c1:bc:68:95:d5:a2:9f:ff:8d:e4:3d:9e:
                    82:c9:1d:79:41:69:af:ad:d2:28:67:74:a8:fc:53:
                    81:22:20:2a:2b:23:8e:c4:95:b3:15:a9:f4:33:71:
                    8a:ae:51:07:cc:6d:68:28:e3:b2:9c:09:88:25:d2:
                    16:a0:29:67:94:5b:cb:e0:a3:dc:3f:e0:22:fb:67:
                    c9:e5:9e:12:23:1d:7f:d1:2f:80:c0:33:c9:2d:50:
                    76:37
                Exponent: 65537 (0x10001)
        X509v3 extensions:
            X509v3 Basic Constraints: 
                CA:FALSE
            X509v3 Subject Key Identifier: 
                39:3B:40:CA:92:67:3D:1B:43:DD:C0:C1:D2:11:FF:BB:B0:FB:F3:EF
            X509v3 Authority Key Identifier: 
                keyid:19:7F:95:3A:F6:68:62:0C:BF:9D:9E:DE:4E:05:9F:71:90:2B:AA:5A
                DirName:/CN=Lazarus CA
                serial:EA:FF:0E:64:F6:67:9F:E9

            X509v3 Extended Key Usage: 
                TLS Web Client Authentication
            X509v3 Key Usage: 
                Digital Signature
    Signature Algorithm: sha256WithRSAEncryption
         d3:60:88:ac:f1:1b:b9:04:1e:52:c3:4c:0f:07:5b:8f:1b:1c:
         39:6b:ec:84:b2:3e:82:dc:d0:08:07:4d:ae:92:b6:db:03:c4:
         2a:45:f5:84:03:06:a4:e8:78:c8:3d:fe:2e:1a:a9:60:8d:3a:
         30:20:d6:b2:a9:d1:a3:56:6c:57:01:57:d2:3c:53:7a:44:28:
         6f:f7:a7:f9:18:36:3c:9c:66:a2:84:3f:61:6c:97:b7:8c:07:
         10:42:29:8a:55:8b:4a:8c:f9:62:98:8a:ae:c1:6b:17:45:54:
         d0:c3:25:11:cc:eb:16:dd:c2:34:d1:e4:4b:38:16:51:73:e9:
         b8:d9:62:a9:ba:da:64:7b:cd:22:00:bf:8e:12:3e:ab:55:8c:
         01:9e:4d:66:c8:51:a5:d0:82:18:d7:20:61:66:d0:a1:ef:bb:
         0d:fa:9b:b4:91:2e:6e:f2:98:22:7f:b8:f6:d7:02:60:44:d4:
         fb:ef:8a:ed:ce:ee:e9:98:6a:22:88:2a:ed:37:b9:bc:86:87:
         39:26:8d:97:82:c1:16:fe:d6:15:66:d9:e1:ac:cc:13:4a:47:
         0e:b6:82:b5:eb:23:36:04:71:f3:5f:dc:21:5f:c0:f4:d9:92:
         d5:76:d5:01:63:f8:2d:d9:02:07:da:1b:8e:bc:06:be:c7:ca:
         be:39:dc:6c
-----BEGIN CERTIFICATE-----
MIIDRzCCAi+gAwIBAgIRAIr5nFLZcfDdF3SPRBElXAEwDQYJKoZIhvcNAQELBQAw
FTETMBEGA1UEAwwKTGF6YXJ1cyBDQTAeFw0xOTAzMjcxNTMyMTZaFw0yMjAzMTEx
NTMyMTZaMBAxDjAMBgNVBAMMBXRlc3Q5MIIBIjANBgkqhkiG9w0BAQEFAAOCAQ8A
MIIBCgKCAQEAz/S/WmhAHpbN63EjqHw/SRK9sUwRdQgZAlywECiMUcZlhd7b5onZ
n+hxvXUNIy/Symi7w5BQPBAmuELRVGuCRW6W3b5HdGwdkChNAz86XM67QUk1tvOx
T3wsy7rYsmR3E62DW73hNsKLCbvULg/QK6YK45D3XM8O0dd1j99oOqvGacY/+ZPv
zyjzvNQFanncZgNXSoCn3ukSzBiVBdc2EpK/rQajsYTBvGiV1aKf/43kPZ6CyR15
QWmvrdIoZ3So/FOBIiAqKyOOxJWzFan0M3GKrlEHzG1oKOOynAmIJdIWoClnlFvL
4KPcP+Ai+2fJ5Z4SIx1/0S+AwDPJLVB2NwIDAQABo4GWMIGTMAkGA1UdEwQCMAAw
HQYDVR0OBBYEFDk7QMqSZz0bQ93AwdIR/7uw+/PvMEUGA1UdIwQ+MDyAFBl/lTr2
aGIMv52e3k4Fn3GQK6paoRmkFzAVMRMwEQYDVQQDDApMYXphcnVzIENBggkA6v8O
ZPZnn+kwEwYDVR0lBAwwCgYIKwYBBQUHAwIwCwYDVR0PBAQDAgeAMA0GCSqGSIb3
DQEBCwUAA4IBAQDTYIis8Ru5BB5Sw0wPB1uPGxw5a+yEsj6C3NAIB02ukrbbA8Qq
RfWEAwak6HjIPf4uGqlgjTowINayqdGjVmxXAVfSPFN6RChv96f5GDY8nGaihD9h
bJe3jAcQQimKVYtKjPlimIquwWsXRVTQwyURzOsW3cI00eRLOBZRc+m42WKputpk
e80iAL+OEj6rVYwBnk1myFGl0IIY1yBhZtCh77sN+pu0kS5u8pgif7j21wJgRNT7
74rtzu7pmGoiiCrtN7m8hoc5Jo2XgsEW/tYVZtnhrMwTSkcOtoK16yM2BHHzX9wh
X8D02ZLVdtUBY/gt2QIH2huOvAa+x8q+Odxs
-----END CERTIFICATE-----
