Certificate:
    Data:
        Version: 3 (0x2)
        Serial Number:
            8f:fe:8b:77:db:16:ac:0a:54:b0:aa:c1:d9:3b:3a:d6
    Signature Algorithm: sha256WithRSAEncryption
        Issuer: CN=Lazarus CA
        Validity
            Not Before: Apr  6 14:17:59 2019 GMT
            Not After : Mar 21 14:17:59 2022 GMT
        Subject: CN=test25
        Subject Public Key Info:
            Public Key Algorithm: rsaEncryption
                Public-Key: (2048 bit)
                Modulus:
                    00:ab:8f:02:0a:c8:80:fc:66:e4:fe:88:da:5b:de:
                    87:90:aa:f2:68:3a:18:ba:24:13:c4:4f:6b:7d:63:
                    59:3b:e3:ce:fc:6c:ef:4a:48:59:36:de:77:6e:82:
                    0f:3c:cc:76:dc:9f:0d:b0:0a:12:c7:13:b1:e0:01:
                    81:11:12:c7:cc:4a:67:0d:84:51:a1:1d:3f:10:35:
                    34:a7:54:8d:e8:c6:95:bb:03:c2:9e:9e:d5:f0:6c:
                    39:02:91:87:0e:17:6f:60:10:02:bb:8d:93:75:57:
                    0b:af:5f:e9:cf:28:d9:06:a5:0f:19:2d:2a:09:67:
                    63:ee:f9:c1:12:96:2d:c2:0a:9c:00:39:d0:ea:0e:
                    ba:cb:4b:b7:0e:97:7e:27:5b:9b:0e:e7:39:e3:bc:
                    01:9a:35:d9:cd:29:51:c8:c9:23:2d:e0:97:a0:de:
                    05:84:34:93:c6:d5:b8:7b:68:0c:14:c5:22:ee:6b:
                    b3:6d:88:a8:ef:96:06:4f:28:4c:87:f6:36:0c:b8:
                    66:90:c8:ba:bc:f8:dc:cd:29:c6:ec:68:46:00:49:
                    03:80:e6:39:33:f4:76:7e:ef:bc:54:0e:de:ae:6d:
                    52:7f:d9:77:a5:11:00:d1:34:da:d2:95:5c:a1:f7:
                    b5:fe:58:57:31:0b:20:bb:9d:4b:59:53:3e:ff:3b:
                    d4:a1
                Exponent: 65537 (0x10001)
        X509v3 extensions:
            X509v3 Basic Constraints: 
                CA:FALSE
            X509v3 Subject Key Identifier: 
                90:F3:87:9C:C2:48:E5:21:95:DC:29:F3:1A:F6:77:D1:B2:BA:86:63
            X509v3 Authority Key Identifier: 
                keyid:19:7F:95:3A:F6:68:62:0C:BF:9D:9E:DE:4E:05:9F:71:90:2B:AA:5A
                DirName:/CN=Lazarus CA
                serial:EA:FF:0E:64:F6:67:9F:E9

            X509v3 Extended Key Usage: 
                TLS Web Client Authentication
            X509v3 Key Usage: 
                Digital Signature
    Signature Algorithm: sha256WithRSAEncryption
         45:bb:37:6d:8c:79:a5:e2:55:41:f0:12:b7:0c:c8:e2:d6:02:
         59:91:27:cf:a8:e8:8f:91:68:84:09:fb:e3:02:b9:79:72:a8:
         72:8a:bb:09:59:ce:94:d6:02:fc:3f:db:e8:80:c4:c8:c6:85:
         1f:6e:7c:dc:9d:7d:a3:0c:44:25:50:68:95:d5:c5:50:5d:9a:
         3c:0f:80:a8:21:20:63:9a:8f:e7:23:67:ea:a3:48:09:bc:31:
         24:85:2f:5a:21:b8:ae:4b:b0:9b:19:b3:f7:af:dd:54:34:74:
         45:dc:60:76:13:84:91:cf:1d:9b:0b:05:17:ec:24:70:fa:3a:
         ed:f8:6b:45:c2:8d:86:3a:0e:27:9c:d6:23:49:a9:7f:e1:5d:
         28:49:a1:e9:63:0b:52:f5:ea:0f:90:5f:f0:1d:aa:6b:0a:1c:
         e8:e0:8c:8e:a3:31:e2:9d:c8:53:e2:bc:00:49:7a:c6:2f:a8:
         9d:9f:52:d5:5a:10:29:1e:a3:37:8d:a7:f6:b4:67:a7:31:c8:
         c4:c1:19:58:56:dd:07:0a:59:f8:a0:ea:4f:86:53:b8:75:33:
         dc:3f:35:85:53:cc:89:9b:cb:d2:87:76:2b:29:d9:b0:2d:f0:
         bd:bd:e3:b1:ea:c0:63:1a:49:4b:71:57:82:4c:d8:95:4e:a2:
         30:b8:c0:95
-----BEGIN CERTIFICATE-----
MIIDSDCCAjCgAwIBAgIRAI/+i3fbFqwKVLCqwdk7OtYwDQYJKoZIhvcNAQELBQAw
FTETMBEGA1UEAwwKTGF6YXJ1cyBDQTAeFw0xOTA0MDYxNDE3NTlaFw0yMjAzMjEx
NDE3NTlaMBExDzANBgNVBAMMBnRlc3QyNTCCASIwDQYJKoZIhvcNAQEBBQADggEP
ADCCAQoCggEBAKuPAgrIgPxm5P6I2lveh5Cq8mg6GLokE8RPa31jWTvjzvxs70pI
WTbed26CDzzMdtyfDbAKEscTseABgRESx8xKZw2EUaEdPxA1NKdUjejGlbsDwp6e
1fBsOQKRhw4Xb2AQAruNk3VXC69f6c8o2QalDxktKglnY+75wRKWLcIKnAA50OoO
ustLtw6Xfidbmw7nOeO8AZo12c0pUcjJIy3gl6DeBYQ0k8bVuHtoDBTFIu5rs22I
qO+WBk8oTIf2Ngy4ZpDIurz43M0pxuxoRgBJA4DmOTP0dn7vvFQO3q5tUn/Zd6UR
ANE02tKVXKH3tf5YVzELILudS1lTPv871KECAwEAAaOBljCBkzAJBgNVHRMEAjAA
MB0GA1UdDgQWBBSQ84ecwkjlIZXcKfMa9nfRsrqGYzBFBgNVHSMEPjA8gBQZf5U6
9mhiDL+dnt5OBZ9xkCuqWqEZpBcwFTETMBEGA1UEAwwKTGF6YXJ1cyBDQYIJAOr/
DmT2Z5/pMBMGA1UdJQQMMAoGCCsGAQUFBwMCMAsGA1UdDwQEAwIHgDANBgkqhkiG
9w0BAQsFAAOCAQEARbs3bYx5peJVQfAStwzI4tYCWZEnz6joj5FohAn74wK5eXKo
coq7CVnOlNYC/D/b6IDEyMaFH2583J19owxEJVBoldXFUF2aPA+AqCEgY5qP5yNn
6qNICbwxJIUvWiG4rkuwmxmz96/dVDR0RdxgdhOEkc8dmwsFF+wkcPo67fhrRcKN
hjoOJ5zWI0mpf+FdKEmh6WMLUvXqD5Bf8B2qawoc6OCMjqMx4p3IU+K8AEl6xi+o
nZ9S1VoQKR6jN42n9rRnpzHIxMEZWFbdBwpZ+KDqT4ZTuHUz3D81hVPMiZvL0od2
KynZsC3wvb3jserAYxpJS3FXgkzYlU6iMLjAlQ==
-----END CERTIFICATE-----
