Certificate:
    Data:
        Version: 3 (0x2)
        Serial Number:
            91:82:81:b0:75:d3:a9:74:78:7a:0a:d9:7f:ff:79:46
    Signature Algorithm: sha256WithRSAEncryption
        Issuer: CN=Lazarus CA
        Validity
            Not Before: Apr 21 14:39:18 2019 GMT
            Not After : Apr  5 14:39:18 2022 GMT
        Subject: CN=gkumar81
        Subject Public Key Info:
            Public Key Algorithm: rsaEncryption
                Public-Key: (2048 bit)
                Modulus:
                    00:c9:e9:4b:85:95:18:63:c9:a0:2f:fb:e9:37:0e:
                    8a:80:3e:29:5a:b8:62:b5:ab:64:c2:92:29:3e:08:
                    60:4e:48:9e:1e:1a:6c:d3:11:ea:30:5d:cf:96:16:
                    d8:4e:1f:93:71:e0:d7:07:4c:d7:a8:61:77:dd:5e:
                    65:dd:91:3e:34:19:28:09:b1:3b:ef:fb:ba:8f:fa:
                    70:4a:1e:4c:e0:1b:a5:bd:3b:5f:55:86:67:75:30:
                    48:53:83:50:a0:aa:ab:9b:01:bd:4f:6e:4e:dd:4a:
                    15:3c:fa:44:61:d0:b7:cf:ab:e5:8f:b3:de:37:4f:
                    df:92:6d:02:5e:9e:14:bc:a1:e2:d6:73:d7:a3:91:
                    d8:35:08:59:f8:f1:25:99:d9:41:66:fc:9c:a3:d8:
                    9a:21:1e:f0:04:3d:68:d4:01:55:f4:5c:fd:8a:fb:
                    ea:bc:c3:6a:21:34:3c:0b:59:0d:95:f2:ea:c6:a7:
                    39:64:64:9e:6a:88:3e:66:03:ad:d5:3d:50:d4:44:
                    ba:38:e2:8c:37:85:84:71:e9:92:5f:67:74:7a:f5:
                    74:df:54:9d:18:cf:50:dd:d2:9e:33:3c:7c:80:ef:
                    d4:95:c6:c4:7d:21:62:16:90:a7:7c:fb:d3:16:66:
                    7e:87:29:9a:7e:4d:5f:90:68:23:3a:c8:2e:68:b8:
                    f4:fb
                Exponent: 65537 (0x10001)
        X509v3 extensions:
            X509v3 Basic Constraints: 
                CA:FALSE
            X509v3 Subject Key Identifier: 
                6F:2E:0F:9A:89:4B:15:35:8E:84:39:8D:34:0A:90:C4:F2:78:A9:D2
            X509v3 Authority Key Identifier: 
                keyid:19:7F:95:3A:F6:68:62:0C:BF:9D:9E:DE:4E:05:9F:71:90:2B:AA:5A
                DirName:/CN=Lazarus CA
                serial:EA:FF:0E:64:F6:67:9F:E9

            X509v3 Extended Key Usage: 
                TLS Web Client Authentication
            X509v3 Key Usage: 
                Digital Signature
    Signature Algorithm: sha256WithRSAEncryption
         27:af:25:a9:f0:43:0d:59:01:dc:73:77:e6:1b:8d:b1:de:1d:
         df:9a:af:c3:22:48:0f:9a:3d:6b:80:74:02:e8:a5:a8:00:21:
         36:c3:b4:12:e6:11:3e:f0:ff:e5:4b:94:21:51:bc:3d:2e:ea:
         72:86:b9:2d:ac:3a:e8:0b:d3:3d:ac:c5:23:84:ab:7a:a4:5e:
         e3:81:00:b8:5e:26:d4:39:6a:6b:ff:3f:ee:9d:80:fd:e3:c1:
         cb:d9:d9:71:19:64:56:c8:10:f6:1a:53:fd:b7:2f:c0:7a:a1:
         7e:ea:69:12:9b:4a:48:b4:ff:d0:06:28:d6:fd:06:be:8b:04:
         01:a8:55:05:34:90:6f:91:98:d9:eb:88:f9:51:fb:42:c1:10:
         3a:f5:cc:25:f4:44:e2:68:6e:5c:81:5b:30:92:d9:06:63:72:
         e5:e1:8c:2b:af:13:be:a8:8b:a2:53:d8:fa:9a:48:66:15:50:
         24:97:f8:e5:94:b0:de:ed:8c:21:06:6d:1e:29:f0:18:87:db:
         c6:0e:e5:1f:66:b1:01:dd:d4:6d:3e:92:5f:46:f3:a7:71:4a:
         1e:37:c9:d7:71:e9:40:98:61:c2:36:b0:b0:d2:ee:49:ce:4a:
         56:c6:67:53:75:8f:62:32:e2:28:9b:4f:1e:74:83:fd:c5:f2:
         0c:d4:c8:23
-----BEGIN CERTIFICATE-----
MIIDSjCCAjKgAwIBAgIRAJGCgbB106l0eHoK2X//eUYwDQYJKoZIhvcNAQELBQAw
FTETMBEGA1UEAwwKTGF6YXJ1cyBDQTAeFw0xOTA0MjExNDM5MThaFw0yMjA0MDUx
NDM5MThaMBMxETAPBgNVBAMMCGdrdW1hcjgxMIIBIjANBgkqhkiG9w0BAQEFAAOC
AQ8AMIIBCgKCAQEAyelLhZUYY8mgL/vpNw6KgD4pWrhitatkwpIpPghgTkieHhps
0xHqMF3PlhbYTh+TceDXB0zXqGF33V5l3ZE+NBkoCbE77/u6j/pwSh5M4BulvTtf
VYZndTBIU4NQoKqrmwG9T25O3UoVPPpEYdC3z6vlj7PeN0/fkm0CXp4UvKHi1nPX
o5HYNQhZ+PElmdlBZvyco9iaIR7wBD1o1AFV9Fz9ivvqvMNqITQ8C1kNlfLqxqc5
ZGSeaog+ZgOt1T1Q1ES6OOKMN4WEcemSX2d0evV031SdGM9Q3dKeMzx8gO/UlcbE
fSFiFpCnfPvTFmZ+hymafk1fkGgjOsguaLj0+wIDAQABo4GWMIGTMAkGA1UdEwQC
MAAwHQYDVR0OBBYEFG8uD5qJSxU1joQ5jTQKkMTyeKnSMEUGA1UdIwQ+MDyAFBl/
lTr2aGIMv52e3k4Fn3GQK6paoRmkFzAVMRMwEQYDVQQDDApMYXphcnVzIENBggkA
6v8OZPZnn+kwEwYDVR0lBAwwCgYIKwYBBQUHAwIwCwYDVR0PBAQDAgeAMA0GCSqG
SIb3DQEBCwUAA4IBAQAnryWp8EMNWQHcc3fmG42x3h3fmq/DIkgPmj1rgHQC6KWo
ACE2w7QS5hE+8P/lS5QhUbw9LupyhrktrDroC9M9rMUjhKt6pF7jgQC4XibUOWpr
/z/unYD948HL2dlxGWRWyBD2GlP9ty/AeqF+6mkSm0pItP/QBijW/Qa+iwQBqFUF
NJBvkZjZ64j5UftCwRA69cwl9ETiaG5cgVswktkGY3Ll4YwrrxO+qIuiU9j6mkhm
FVAkl/jllLDe7YwhBm0eKfAYh9vGDuUfZrEB3dRtPpJfRvOncUoeN8nXcelAmGHC
NrCw0u5JzkpWxmdTdY9iMuIom08edIP9xfIM1Mgj
-----END CERTIFICATE-----
