Certificate:
    Data:
        Version: 3 (0x2)
        Serial Number:
            97:77:d7:00:e2:f9:c3:a8:c8:de:f6:af:91:06:cd:38
    Signature Algorithm: sha256WithRSAEncryption
        Issuer: CN=Lazarus CA
        Validity
            Not Before: Apr  6 14:00:56 2019 GMT
            Not After : Mar 21 14:00:56 2022 GMT
        Subject: CN=takala1
        Subject Public Key Info:
            Public Key Algorithm: rsaEncryption
                Public-Key: (2048 bit)
                Modulus:
                    00:c9:79:1c:43:b7:cf:79:13:aa:14:31:e1:61:34:
                    0a:1e:bb:30:52:40:d9:9e:1c:d6:14:54:e8:5e:9a:
                    c4:60:f2:f9:56:16:04:79:74:07:b7:8a:17:33:18:
                    97:90:23:f8:44:76:8f:b8:33:de:0e:f7:19:45:e8:
                    b9:1e:a1:fc:4f:1b:be:ac:12:80:ae:b6:03:f7:d7:
                    3f:82:69:5d:f3:b1:bd:b4:67:8f:6a:56:67:d7:80:
                    a1:48:57:59:70:d3:1c:e1:2b:e2:4a:41:b4:72:2d:
                    96:b4:d7:d3:62:fd:54:63:6b:4f:93:15:f8:d0:e2:
                    f8:94:aa:22:15:67:f1:cf:7d:54:8c:5b:c8:1d:35:
                    9f:d6:e4:4c:28:4f:f4:25:1f:1d:2d:6c:ca:ea:6d:
                    1f:63:f3:5e:f1:0d:f1:2c:23:03:f7:11:58:82:2e:
                    e9:56:6c:66:06:6a:29:f1:03:7e:a0:66:7a:39:de:
                    43:37:27:44:7f:ec:cc:26:86:c6:48:f1:85:a6:1c:
                    21:f5:42:11:bb:e1:a6:05:8d:b4:19:da:7e:1e:5e:
                    65:28:0b:e2:42:b5:e2:1b:be:7a:c4:ce:c0:c1:f2:
                    8b:3e:50:14:6d:b2:dd:7b:f5:c3:f5:84:12:e4:20:
                    8b:5b:e0:11:b9:6f:e6:7d:7c:9a:d5:26:39:9d:21:
                    17:c1
                Exponent: 65537 (0x10001)
        X509v3 extensions:
            X509v3 Basic Constraints: 
                CA:FALSE
            X509v3 Subject Key Identifier: 
                9F:5F:CC:2C:73:9A:0E:7C:EC:0D:E4:A2:20:57:56:02:72:3B:97:4C
            X509v3 Authority Key Identifier: 
                keyid:19:7F:95:3A:F6:68:62:0C:BF:9D:9E:DE:4E:05:9F:71:90:2B:AA:5A
                DirName:/CN=Lazarus CA
                serial:EA:FF:0E:64:F6:67:9F:E9

            X509v3 Extended Key Usage: 
                TLS Web Client Authentication
            X509v3 Key Usage: 
                Digital Signature
    Signature Algorithm: sha256WithRSAEncryption
         8e:8b:c2:bf:60:d2:26:fc:5a:5d:7f:84:f0:de:f1:79:1c:4b:
         19:5d:b7:83:43:20:f1:a3:91:0c:1e:f8:32:09:7b:f0:fc:3d:
         15:99:31:d5:a9:86:47:af:57:2e:d7:5c:ba:ba:b0:34:df:79:
         f9:05:27:75:a7:8f:e3:62:4b:74:51:a5:16:94:93:0d:f1:d7:
         54:60:2d:28:0f:b0:2b:88:b9:9e:cc:1e:59:38:b1:82:09:d4:
         1a:cb:c0:51:d1:8a:65:bb:90:73:de:15:a9:9d:34:24:29:e9:
         bd:96:7d:77:26:91:b1:1a:70:cb:56:96:15:e1:40:94:2b:5d:
         c2:69:25:65:a1:2e:bb:56:a2:87:c2:13:6c:b1:29:96:80:65:
         92:96:e8:b0:04:bb:27:1b:d0:06:a6:24:95:9d:27:24:f9:24:
         94:42:17:4c:66:a9:e1:b8:25:bd:74:2c:60:fb:43:37:d5:2a:
         f3:fb:27:4a:14:78:2d:e2:16:d7:19:2f:10:7e:1f:0a:55:a3:
         33:19:70:48:86:db:03:07:3a:43:7d:a4:05:2c:41:2f:ab:ee:
         30:20:b3:42:1e:fe:85:71:d9:f2:c4:9c:5f:2b:7c:a0:dc:e0:
         ed:8e:8d:d0:78:10:79:5e:19:ed:1f:45:1d:71:ef:9c:8e:f0:
         a5:bb:b9:20
-----BEGIN CERTIFICATE-----
MIIDSTCCAjGgAwIBAgIRAJd31wDi+cOoyN72r5EGzTgwDQYJKoZIhvcNAQELBQAw
FTETMBEGA1UEAwwKTGF6YXJ1cyBDQTAeFw0xOTA0MDYxNDAwNTZaFw0yMjAzMjEx
NDAwNTZaMBIxEDAOBgNVBAMMB3Rha2FsYTEwggEiMA0GCSqGSIb3DQEBAQUAA4IB
DwAwggEKAoIBAQDJeRxDt895E6oUMeFhNAoeuzBSQNmeHNYUVOhemsRg8vlWFgR5
dAe3ihczGJeQI/hEdo+4M94O9xlF6LkeofxPG76sEoCutgP31z+CaV3zsb20Z49q
VmfXgKFIV1lw0xzhK+JKQbRyLZa019Ni/VRja0+TFfjQ4viUqiIVZ/HPfVSMW8gd
NZ/W5EwoT/QlHx0tbMrqbR9j817xDfEsIwP3EViCLulWbGYGainxA36gZno53kM3
J0R/7MwmhsZI8YWmHCH1QhG74aYFjbQZ2n4eXmUoC+JCteIbvnrEzsDB8os+UBRt
st179cP1hBLkIItb4BG5b+Z9fJrVJjmdIRfBAgMBAAGjgZYwgZMwCQYDVR0TBAIw
ADAdBgNVHQ4EFgQUn1/MLHOaDnzsDeSiIFdWAnI7l0wwRQYDVR0jBD4wPIAUGX+V
OvZoYgy/nZ7eTgWfcZArqlqhGaQXMBUxEzARBgNVBAMMCkxhemFydXMgQ0GCCQDq
/w5k9mef6TATBgNVHSUEDDAKBggrBgEFBQcDAjALBgNVHQ8EBAMCB4AwDQYJKoZI
hvcNAQELBQADggEBAI6Lwr9g0ib8Wl1/hPDe8XkcSxldt4NDIPGjkQwe+DIJe/D8
PRWZMdWphkevVy7XXLq6sDTfefkFJ3Wnj+NiS3RRpRaUkw3x11RgLSgPsCuIuZ7M
Hlk4sYIJ1BrLwFHRimW7kHPeFamdNCQp6b2WfXcmkbEacMtWlhXhQJQrXcJpJWWh
LrtWoofCE2yxKZaAZZKW6LAEuycb0AamJJWdJyT5JJRCF0xmqeG4Jb10LGD7QzfV
KvP7J0oUeC3iFtcZLxB+HwpVozMZcEiG2wMHOkN9pAUsQS+r7jAgs0Ie/oVx2fLE
nF8rfKDc4O2OjdB4EHleGe0fRR1x75yO8KW7uSA=
-----END CERTIFICATE-----
