Certificate:
    Data:
        Version: 3 (0x2)
        Serial Number:
            98:11:68:17:a2:29:1b:c2:98:df:98:59:4d:f6:a2:73
    Signature Algorithm: sha256WithRSAEncryption
        Issuer: CN=Lazarus CA
        Validity
            Not Before: Apr  6 14:16:06 2019 GMT
            Not After : Mar 21 14:16:06 2022 GMT
        Subject: CN=test22
        Subject Public Key Info:
            Public Key Algorithm: rsaEncryption
                Public-Key: (2048 bit)
                Modulus:
                    00:ea:f6:cb:dc:21:72:d4:ea:7f:09:d2:d5:2a:04:
                    56:c8:0f:30:2e:70:47:cd:b2:3b:3b:4f:91:6b:d3:
                    56:76:a9:1a:e3:30:fb:fc:e6:52:62:fd:b7:84:ff:
                    bb:49:8b:50:c2:54:54:e8:41:8d:fd:74:91:90:eb:
                    13:ca:24:3b:b7:9e:52:cd:4c:53:f7:1a:aa:ae:6a:
                    0c:15:23:3e:d1:13:6c:90:69:27:0f:0c:11:e4:a6:
                    1c:c8:54:c8:46:6d:d6:c4:00:6d:ef:67:1f:ee:e3:
                    c3:28:71:bf:bd:46:b5:f6:03:4c:cf:4b:d9:0c:d1:
                    94:ad:a2:b0:17:29:31:5c:82:8b:5b:e5:86:16:f4:
                    c2:20:11:f8:66:a9:54:78:7c:03:c8:d0:11:59:21:
                    fe:3a:12:41:26:c4:48:7d:77:a3:c8:e9:2f:69:44:
                    ab:d1:a2:af:6f:27:ee:a0:f1:ae:aa:c8:ba:45:0d:
                    8a:a8:b5:41:b6:6d:fd:bf:25:49:d8:92:ef:dd:57:
                    83:08:dd:f3:4f:44:5e:a3:96:21:8d:cf:c8:41:37:
                    e3:c0:9b:e2:59:16:97:96:ad:e3:84:fd:a2:86:a7:
                    24:fb:ad:2b:7c:a4:0c:94:08:0b:c1:ca:46:8f:64:
                    76:73:13:97:5d:d8:88:7c:15:6b:08:20:0d:d3:c7:
                    b9:ab
                Exponent: 65537 (0x10001)
        X509v3 extensions:
            X509v3 Basic Constraints: 
                CA:FALSE
            X509v3 Subject Key Identifier: 
                28:C5:2D:5E:24:A1:15:78:C5:5B:67:EA:32:59:5E:8E:A7:FE:C9:AB
            X509v3 Authority Key Identifier: 
                keyid:19:7F:95:3A:F6:68:62:0C:BF:9D:9E:DE:4E:05:9F:71:90:2B:AA:5A
                DirName:/CN=Lazarus CA
                serial:EA:FF:0E:64:F6:67:9F:E9

            X509v3 Extended Key Usage: 
                TLS Web Client Authentication
            X509v3 Key Usage: 
                Digital Signature
    Signature Algorithm: sha256WithRSAEncryption
         95:5e:76:ad:11:8a:56:db:68:59:2a:07:d6:d3:46:8d:f2:29:
         d3:37:0d:6a:80:20:47:83:1f:95:0e:93:4c:aa:ee:15:0a:95:
         c4:54:a7:25:2d:14:0e:7a:6b:40:97:db:aa:63:c5:ce:f3:90:
         78:ff:fd:1f:4d:90:b5:86:46:83:d4:3d:5e:5d:38:9f:f5:2f:
         ef:eb:9a:44:42:db:bc:b2:ef:fa:de:9c:bc:20:ee:c2:04:8e:
         59:06:d6:85:7c:76:89:6b:69:a1:37:36:4b:a7:93:f9:88:14:
         56:cd:f5:67:32:c0:f3:97:ac:e3:d9:d7:cf:e0:80:51:dc:b3:
         14:44:5a:1c:6c:83:8b:1c:0d:7e:22:0f:81:e4:3d:f5:3a:b2:
         4f:da:7a:04:22:8f:ff:34:5a:68:05:ba:cb:f2:5f:ec:8c:d6:
         26:dd:70:ea:a0:f6:f5:e9:74:62:23:2e:1f:80:40:9a:03:d6:
         cb:31:c8:e5:30:c0:57:63:6a:69:b8:c4:53:9b:86:77:e7:ef:
         8d:75:52:8c:28:c6:9c:96:cd:ce:21:a2:07:6e:19:b0:04:f2:
         0f:1c:02:96:e8:ec:f0:e8:77:1f:fe:e2:7e:02:8d:42:c7:a8:
         db:38:ed:04:fd:46:70:05:16:dd:a9:56:ff:d2:76:e1:34:a6:
         39:47:bf:98
-----BEGIN CERTIFICATE-----
MIIDSDCCAjCgAwIBAgIRAJgRaBeiKRvCmN+YWU32onMwDQYJKoZIhvcNAQELBQAw
FTETMBEGA1UEAwwKTGF6YXJ1cyBDQTAeFw0xOTA0MDYxNDE2MDZaFw0yMjAzMjEx
NDE2MDZaMBExDzANBgNVBAMMBnRlc3QyMjCCASIwDQYJKoZIhvcNAQEBBQADggEP
ADCCAQoCggEBAOr2y9whctTqfwnS1SoEVsgPMC5wR82yOztPkWvTVnapGuMw+/zm
UmL9t4T/u0mLUMJUVOhBjf10kZDrE8okO7eeUs1MU/caqq5qDBUjPtETbJBpJw8M
EeSmHMhUyEZt1sQAbe9nH+7jwyhxv71GtfYDTM9L2QzRlK2isBcpMVyCi1vlhhb0
wiAR+GapVHh8A8jQEVkh/joSQSbESH13o8jpL2lEq9Gir28n7qDxrqrIukUNiqi1
QbZt/b8lSdiS791Xgwjd809EXqOWIY3PyEE348Cb4lkWl5at44T9ooanJPutK3yk
DJQIC8HKRo9kdnMTl13YiHwVawggDdPHuasCAwEAAaOBljCBkzAJBgNVHRMEAjAA
MB0GA1UdDgQWBBQoxS1eJKEVeMVbZ+oyWV6Op/7JqzBFBgNVHSMEPjA8gBQZf5U6
9mhiDL+dnt5OBZ9xkCuqWqEZpBcwFTETMBEGA1UEAwwKTGF6YXJ1cyBDQYIJAOr/
DmT2Z5/pMBMGA1UdJQQMMAoGCCsGAQUFBwMCMAsGA1UdDwQEAwIHgDANBgkqhkiG
9w0BAQsFAAOCAQEAlV52rRGKVttoWSoH1tNGjfIp0zcNaoAgR4MflQ6TTKruFQqV
xFSnJS0UDnprQJfbqmPFzvOQeP/9H02QtYZGg9Q9Xl04n/Uv7+uaRELbvLLv+t6c
vCDuwgSOWQbWhXx2iWtpoTc2S6eT+YgUVs31ZzLA85es49nXz+CAUdyzFERaHGyD
ixwNfiIPgeQ99TqyT9p6BCKP/zRaaAW6y/Jf7IzWJt1w6qD29el0YiMuH4BAmgPW
yzHI5TDAV2NqabjEU5uGd+fvjXVSjCjGnJbNziGiB24ZsATyDxwClujs8Oh3H/7i
fgKNQseo2zjtBP1GcAUW3alW/9J24TSmOUe/mA==
-----END CERTIFICATE-----
