Certificate:
    Data:
        Version: 3 (0x2)
        Serial Number:
            ab:4a:a2:56:a0:ed:ff:c6:af:fd:93:1f:ab:7a:25:be
    Signature Algorithm: sha256WithRSAEncryption
        Issuer: CN=Lazarus CA
        Validity
            Not Before: Apr  6 14:15:40 2019 GMT
            Not After : Mar 21 14:15:40 2022 GMT
        Subject: CN=test20
        Subject Public Key Info:
            Public Key Algorithm: rsaEncryption
                Public-Key: (2048 bit)
                Modulus:
                    00:b5:45:a3:b4:44:bb:ab:aa:9b:77:b7:61:f4:59:
                    b5:60:c3:a6:9c:ed:37:64:6b:a0:50:8b:b0:d5:25:
                    b0:3b:38:b9:10:c5:d9:38:b3:df:a9:14:ad:99:a2:
                    c5:66:09:b5:07:30:d3:1e:ca:b9:b8:21:76:41:e7:
                    3d:a0:9a:ad:80:a9:ec:23:96:2e:1c:75:6b:bc:51:
                    91:8c:b5:11:88:1b:ac:99:67:d6:40:52:aa:5f:8f:
                    fe:3f:be:f7:18:6c:a9:6c:f2:c3:77:cc:30:9e:32:
                    57:d7:1c:15:56:53:15:e0:73:30:00:c7:3f:43:ee:
                    df:c8:75:a3:04:95:27:4b:78:e0:8b:3c:88:49:4d:
                    b5:ec:ca:84:ef:03:dd:f9:e3:64:35:40:8d:f3:34:
                    00:22:07:dd:d1:15:cb:a0:23:ab:83:ca:a1:28:34:
                    51:ab:40:b2:68:91:9b:bc:78:9e:97:ea:5d:e7:5c:
                    67:a4:bc:70:88:52:9d:ac:41:e8:36:40:e5:76:c0:
                    65:d1:49:93:f7:99:6b:eb:92:08:51:8d:cc:67:91:
                    28:f8:50:31:70:61:0d:6b:28:f4:f4:f2:04:ec:79:
                    b2:53:4d:56:60:f0:1d:9e:67:c9:73:45:3c:35:19:
                    d2:d5:a7:c7:11:d2:ca:9e:d1:09:cc:87:45:88:9a:
                    cf:2b
                Exponent: 65537 (0x10001)
        X509v3 extensions:
            X509v3 Basic Constraints: 
                CA:FALSE
            X509v3 Subject Key Identifier: 
                0A:D0:A0:92:B1:7D:E9:14:FF:A6:E6:19:3F:5D:70:39:B0:5E:B7:FC
            X509v3 Authority Key Identifier: 
                keyid:19:7F:95:3A:F6:68:62:0C:BF:9D:9E:DE:4E:05:9F:71:90:2B:AA:5A
                DirName:/CN=Lazarus CA
                serial:EA:FF:0E:64:F6:67:9F:E9

            X509v3 Extended Key Usage: 
                TLS Web Client Authentication
            X509v3 Key Usage: 
                Digital Signature
    Signature Algorithm: sha256WithRSAEncryption
         b0:2e:c1:d4:bc:80:2b:e6:33:09:d8:bf:80:d0:ee:65:bf:7f:
         b8:61:ec:75:36:35:ba:f8:d6:9c:e0:06:33:dc:c2:19:5f:98:
         51:c2:ca:74:45:92:5e:cf:82:19:24:9f:c9:ae:8f:6f:2d:fb:
         26:4b:89:d7:f8:c1:5f:f0:34:3a:5b:f8:ab:44:2e:b3:56:b2:
         55:44:eb:35:06:0e:cd:18:86:b0:e2:9f:87:31:63:2e:c8:23:
         c5:ec:7d:ad:c7:48:00:e3:ca:b4:e9:55:a3:10:dc:0e:12:59:
         ea:08:75:5e:ac:64:cd:11:d6:de:c3:06:14:79:90:b8:66:e0:
         90:d3:bb:e1:63:ba:2a:3e:e6:49:83:e8:8d:dc:ca:0b:fb:c0:
         a5:3a:ae:94:4f:19:fc:3c:fd:f2:82:94:e7:69:d6:0e:0c:4d:
         8c:1c:9b:db:3a:d2:19:75:6c:63:12:fc:f0:b8:c5:ff:d3:09:
         76:39:24:7c:8c:e1:e5:d9:4d:93:e3:38:fb:71:66:74:a5:30:
         9d:ed:7d:9a:27:b4:24:c5:47:5d:62:e1:f9:ac:68:66:df:b2:
         36:99:88:d3:67:c6:7e:3a:83:64:47:f8:db:e9:e9:df:82:f7:
         13:ff:9f:f4:8d:72:03:0a:12:a6:e9:a2:6a:83:7c:98:f2:68:
         18:1b:91:da
-----BEGIN CERTIFICATE-----
MIIDSDCCAjCgAwIBAgIRAKtKolag7f/Gr/2TH6t6Jb4wDQYJKoZIhvcNAQELBQAw
FTETMBEGA1UEAwwKTGF6YXJ1cyBDQTAeFw0xOTA0MDYxNDE1NDBaFw0yMjAzMjEx
NDE1NDBaMBExDzANBgNVBAMMBnRlc3QyMDCCASIwDQYJKoZIhvcNAQEBBQADggEP
ADCCAQoCggEBALVFo7REu6uqm3e3YfRZtWDDppztN2RroFCLsNUlsDs4uRDF2Tiz
36kUrZmixWYJtQcw0x7KubghdkHnPaCarYCp7COWLhx1a7xRkYy1EYgbrJln1kBS
ql+P/j++9xhsqWzyw3fMMJ4yV9ccFVZTFeBzMADHP0Pu38h1owSVJ0t44Is8iElN
tezKhO8D3fnjZDVAjfM0ACIH3dEVy6Ajq4PKoSg0UatAsmiRm7x4npfqXedcZ6S8
cIhSnaxB6DZA5XbAZdFJk/eZa+uSCFGNzGeRKPhQMXBhDWso9PTyBOx5slNNVmDw
HZ5nyXNFPDUZ0tWnxxHSyp7RCcyHRYiazysCAwEAAaOBljCBkzAJBgNVHRMEAjAA
MB0GA1UdDgQWBBQK0KCSsX3pFP+m5hk/XXA5sF63/DBFBgNVHSMEPjA8gBQZf5U6
9mhiDL+dnt5OBZ9xkCuqWqEZpBcwFTETMBEGA1UEAwwKTGF6YXJ1cyBDQYIJAOr/
DmT2Z5/pMBMGA1UdJQQMMAoGCCsGAQUFBwMCMAsGA1UdDwQEAwIHgDANBgkqhkiG
9w0BAQsFAAOCAQEAsC7B1LyAK+YzCdi/gNDuZb9/uGHsdTY1uvjWnOAGM9zCGV+Y
UcLKdEWSXs+CGSSfya6Pby37JkuJ1/jBX/A0Olv4q0Qus1ayVUTrNQYOzRiGsOKf
hzFjLsgjxex9rcdIAOPKtOlVoxDcDhJZ6gh1XqxkzRHW3sMGFHmQuGbgkNO74WO6
Kj7mSYPojdzKC/vApTqulE8Z/Dz98oKU52nWDgxNjByb2zrSGXVsYxL88LjF/9MJ
djkkfIzh5dlNk+M4+3FmdKUwne19mie0JMVHXWLh+axoZt+yNpmI02fGfjqDZEf4
2+np34L3E/+f9I1yAwoSpumiaoN8mPJoGBuR2g==
-----END CERTIFICATE-----
