Certificate:
    Data:
        Version: 3 (0x2)
        Serial Number:
            b1:07:f1:d9:d8:9b:9b:c4:1f:57:50:28:78:cc:07:ec
    Signature Algorithm: sha256WithRSAEncryption
        Issuer: CN=Lazarus CA
        Validity
            Not Before: Apr 24 19:09:13 2019 GMT
            Not After : Apr  8 19:09:13 2022 GMT
        Subject: CN=FREE-Mw-4
        Subject Public Key Info:
            Public Key Algorithm: rsaEncryption
                Public-Key: (2048 bit)
                Modulus:
                    00:d3:6c:c0:fc:7c:77:44:fc:dd:f9:b0:5b:44:45:
                    03:c4:e4:ec:53:89:24:4a:42:ff:d0:bc:a1:38:6e:
                    6c:3d:06:75:e3:e9:bd:0a:ce:f7:01:a1:5d:69:2c:
                    79:01:1c:82:01:43:fe:e9:81:2e:bb:1a:85:e3:fb:
                    18:87:19:07:e2:6d:a6:4e:63:e6:f6:84:92:7e:34:
                    a0:7d:df:98:5a:df:fb:6f:76:e0:ca:9b:1e:b2:dd:
                    dc:00:58:43:50:ca:45:84:56:11:1f:ab:65:27:a6:
                    c6:44:54:a6:a3:0f:ba:f6:0b:36:89:97:89:eb:fd:
                    3e:aa:38:8f:ef:65:af:ca:21:2b:b7:5b:04:89:41:
                    66:81:fc:2d:29:b4:10:ef:df:27:42:ab:17:a6:52:
                    28:7d:86:43:26:f4:0e:6f:a1:39:9c:96:f5:26:c3:
                    8e:77:87:8d:d1:bb:0f:bf:f6:c3:17:a1:49:d4:58:
                    51:f0:8a:a3:c2:b7:bd:9b:2f:18:48:37:95:8a:d5:
                    a9:de:87:42:ca:12:38:28:1a:f0:19:27:f1:5a:5d:
                    69:d4:dc:72:b9:a4:e0:ad:55:58:b0:7b:3a:26:1b:
                    f8:63:fd:8b:ae:eb:f5:31:fa:9a:ed:25:f3:d7:dd:
                    02:92:03:6b:00:11:af:a0:4a:d0:6e:01:32:22:bb:
                    99:73
                Exponent: 65537 (0x10001)
        X509v3 extensions:
            X509v3 Basic Constraints: 
                CA:FALSE
            X509v3 Subject Key Identifier: 
                64:C9:3D:3B:6D:41:EE:8A:1C:62:87:6F:56:E1:35:7D:D8:F3:96:77
            X509v3 Authority Key Identifier: 
                keyid:19:7F:95:3A:F6:68:62:0C:BF:9D:9E:DE:4E:05:9F:71:90:2B:AA:5A
                DirName:/CN=Lazarus CA
                serial:EA:FF:0E:64:F6:67:9F:E9

            X509v3 Extended Key Usage: 
                TLS Web Client Authentication
            X509v3 Key Usage: 
                Digital Signature
    Signature Algorithm: sha256WithRSAEncryption
         4c:79:1b:74:3b:e2:0a:d8:e8:46:de:55:6f:0c:4d:21:fa:e3:
         ca:fb:49:1b:f9:7c:9d:27:35:f2:5e:f1:b6:79:51:81:19:1d:
         0b:de:eb:4b:bb:e4:e9:2a:f9:3c:4b:48:06:06:0b:c2:32:cf:
         e5:4a:c2:17:d3:b0:ae:42:37:cc:98:cc:62:e9:9d:0d:40:af:
         c6:89:a8:0f:90:77:39:79:b6:24:79:8d:33:73:21:49:b5:11:
         a5:e8:cd:2a:56:3a:8e:c4:a6:5c:70:a8:e7:e3:f6:8e:8e:f8:
         a8:96:da:37:6f:7a:7c:06:5c:ba:87:a6:52:e3:85:8e:7c:16:
         cd:5e:81:8a:d6:46:39:95:f0:67:f9:a3:8f:b5:6f:81:30:f4:
         6d:52:bb:4e:a6:05:af:e7:ae:9a:4c:e7:b6:a0:de:9e:eb:09:
         ff:ed:02:bb:e6:db:79:04:96:d9:6a:cb:5c:9d:24:a8:a9:94:
         89:d2:8a:7c:19:24:a3:64:93:97:94:2b:ee:06:65:9b:d8:60:
         d4:4f:57:1e:dc:b9:07:eb:f4:6e:57:2d:3b:2d:46:b6:c0:b8:
         33:78:8c:33:8e:e5:91:8e:3a:6e:b8:c7:90:c9:cc:40:8e:b9:
         9f:17:60:b0:49:fa:6b:3e:86:84:3f:cd:e9:b6:db:0d:dd:8a:
         a0:67:f9:d1
-----BEGIN CERTIFICATE-----
MIIDSzCCAjOgAwIBAgIRALEH8dnYm5vEH1dQKHjMB+wwDQYJKoZIhvcNAQELBQAw
FTETMBEGA1UEAwwKTGF6YXJ1cyBDQTAeFw0xOTA0MjQxOTA5MTNaFw0yMjA0MDgx
OTA5MTNaMBQxEjAQBgNVBAMMCUZSRUUtTXctNDCCASIwDQYJKoZIhvcNAQEBBQAD
ggEPADCCAQoCggEBANNswPx8d0T83fmwW0RFA8Tk7FOJJEpC/9C8oThubD0GdePp
vQrO9wGhXWkseQEcggFD/umBLrsaheP7GIcZB+Jtpk5j5vaEkn40oH3fmFrf+292
4MqbHrLd3ABYQ1DKRYRWER+rZSemxkRUpqMPuvYLNomXiev9Pqo4j+9lr8ohK7db
BIlBZoH8LSm0EO/fJ0KrF6ZSKH2GQyb0Dm+hOZyW9SbDjneHjdG7D7/2wxehSdRY
UfCKo8K3vZsvGEg3lYrVqd6HQsoSOCga8Bkn8VpdadTccrmk4K1VWLB7OiYb+GP9
i67r9TH6mu0l89fdApIDawARr6BK0G4BMiK7mXMCAwEAAaOBljCBkzAJBgNVHRME
AjAAMB0GA1UdDgQWBBRkyT07bUHuihxih29W4TV92POWdzBFBgNVHSMEPjA8gBQZ
f5U69mhiDL+dnt5OBZ9xkCuqWqEZpBcwFTETMBEGA1UEAwwKTGF6YXJ1cyBDQYIJ
AOr/DmT2Z5/pMBMGA1UdJQQMMAoGCCsGAQUFBwMCMAsGA1UdDwQEAwIHgDANBgkq
hkiG9w0BAQsFAAOCAQEATHkbdDviCtjoRt5VbwxNIfrjyvtJG/l8nSc18l7xtnlR
gRkdC97rS7vk6Sr5PEtIBgYLwjLP5UrCF9OwrkI3zJjMYumdDUCvxomoD5B3OXm2
JHmNM3MhSbURpejNKlY6jsSmXHCo5+P2jo74qJbaN296fAZcuoemUuOFjnwWzV6B
itZGOZXwZ/mjj7VvgTD0bVK7TqYFr+eumkzntqDenusJ/+0Cu+bbeQSW2WrLXJ0k
qKmUidKKfBkko2STl5Qr7gZlm9hg1E9XHty5B+v0blctOy1GtsC4M3iMM47lkY46
brjHkMnMQI65nxdgsEn6az6GhD/N6bbbDd2KoGf50Q==
-----END CERTIFICATE-----
