Certificate:
    Data:
        Version: 3 (0x2)
        Serial Number:
            b5:c1:fd:93:6a:ec:84:0c:30:1a:65:27:64:13:d0:d5
    Signature Algorithm: sha256WithRSAEncryption
        Issuer: CN=Lazarus CA
        Validity
            Not Before: Apr 25 17:23:23 2019 GMT
            Not After : Apr  9 17:23:23 2022 GMT
        Subject: CN=FREE__NQ__1556213004
        Subject Public Key Info:
            Public Key Algorithm: rsaEncryption
                Public-Key: (2048 bit)
                Modulus:
                    00:ad:77:5a:6f:04:ea:dc:18:e0:04:a8:e9:a0:aa:
                    54:4d:ec:be:0b:6c:60:48:69:6e:73:65:6a:21:da:
                    ad:28:3b:10:11:10:d2:eb:da:72:b1:34:07:dd:fa:
                    10:42:a1:aa:5a:55:f7:89:84:6c:d1:dd:ec:aa:7b:
                    4e:0b:1e:66:64:fe:6b:e1:c8:aa:da:7d:75:fd:6d:
                    ca:03:bc:2d:08:34:a2:5f:36:f8:ea:8d:a9:ce:20:
                    05:38:44:79:ee:07:b0:b7:8e:3c:e9:5a:9a:4f:2b:
                    bb:76:86:15:7a:3c:40:31:fb:b3:fe:c1:21:6c:e8:
                    ad:25:de:43:1e:3d:92:54:b0:7c:90:ca:33:75:c8:
                    49:8f:df:fc:da:f8:84:d0:6a:0b:c6:80:3d:b7:04:
                    8f:8d:a7:82:07:c0:ff:92:b8:b1:a6:42:3e:52:2a:
                    82:cd:bc:42:5b:27:99:9e:6f:0c:8b:f2:5d:cb:4f:
                    05:6e:0d:db:cc:2d:10:05:70:ad:24:aa:e4:d2:69:
                    8e:02:28:a8:2f:b4:62:82:58:6c:bc:0b:c9:fc:3d:
                    c4:a1:08:90:68:72:f0:f0:c5:06:06:71:f2:65:46:
                    55:39:41:57:e8:f4:d7:b0:99:d7:82:70:7f:b1:15:
                    9a:71:f2:51:18:9d:b1:20:a5:c2:d7:e5:05:e8:84:
                    92:ff
                Exponent: 65537 (0x10001)
        X509v3 extensions:
            X509v3 Basic Constraints: 
                CA:FALSE
            X509v3 Subject Key Identifier: 
                64:86:8F:36:D8:C8:8E:C6:EE:34:72:21:7C:28:7A:C8:84:D9:42:10
            X509v3 Authority Key Identifier: 
                keyid:19:7F:95:3A:F6:68:62:0C:BF:9D:9E:DE:4E:05:9F:71:90:2B:AA:5A
                DirName:/CN=Lazarus CA
                serial:EA:FF:0E:64:F6:67:9F:E9

            X509v3 Extended Key Usage: 
                TLS Web Client Authentication
            X509v3 Key Usage: 
                Digital Signature
    Signature Algorithm: sha256WithRSAEncryption
         8f:a7:32:32:68:cb:1a:af:db:be:1b:40:ce:76:a4:c3:ac:07:
         a7:dc:5e:e3:c5:ba:d0:44:a5:91:f5:3c:63:cc:e5:b2:6f:1f:
         48:93:72:f8:47:08:16:6c:22:c6:c4:8f:ef:80:b1:75:72:68:
         7b:6b:36:34:09:44:ab:e1:14:7e:f8:c3:d5:dc:01:31:71:9e:
         ac:0f:99:14:8a:ab:36:f4:66:31:cc:4a:48:8a:43:2e:ee:5c:
         43:03:36:d3:75:48:6d:9d:c3:86:d9:9d:9f:35:8d:72:15:fb:
         61:e5:47:3d:fd:29:ca:e4:01:5b:04:92:c5:24:10:cc:f8:e2:
         90:10:6d:79:fa:be:4d:8c:75:30:e7:99:46:d6:86:e7:7b:2e:
         94:38:c9:dd:a5:2b:0f:a7:df:44:16:bd:80:7e:30:9a:99:9c:
         d0:55:f4:2c:6e:42:d5:81:dc:97:a8:a9:80:dc:81:14:22:3e:
         f1:88:5d:90:01:ad:f7:c4:f0:38:8b:92:f5:98:b3:84:40:ea:
         8e:94:03:80:f2:71:32:b0:d3:12:30:9c:54:99:ac:85:ad:e3:
         f1:a5:ac:2c:1a:78:a5:54:56:13:18:ee:7f:bb:bb:1e:7d:e0:
         25:39:53:75:16:2c:d1:1e:a3:70:fe:a9:64:47:d4:b0:5c:46:
         22:2d:8f:00
-----BEGIN CERTIFICATE-----
MIIDVjCCAj6gAwIBAgIRALXB/ZNq7IQMMBplJ2QT0NUwDQYJKoZIhvcNAQELBQAw
FTETMBEGA1UEAwwKTGF6YXJ1cyBDQTAeFw0xOTA0MjUxNzIzMjNaFw0yMjA0MDkx
NzIzMjNaMB8xHTAbBgNVBAMMFEZSRUVfX05RX18xNTU2MjEzMDA0MIIBIjANBgkq
hkiG9w0BAQEFAAOCAQ8AMIIBCgKCAQEArXdabwTq3BjgBKjpoKpUTey+C2xgSGlu
c2VqIdqtKDsQERDS69pysTQH3foQQqGqWlX3iYRs0d3sqntOCx5mZP5r4ciq2n11
/W3KA7wtCDSiXzb46o2pziAFOER57gewt4486VqaTyu7doYVejxAMfuz/sEhbOit
Jd5DHj2SVLB8kMozdchJj9/82viE0GoLxoA9twSPjaeCB8D/krixpkI+UiqCzbxC
WyeZnm8Mi/Jdy08Fbg3bzC0QBXCtJKrk0mmOAiioL7RiglhsvAvJ/D3EoQiQaHLw
8MUGBnHyZUZVOUFX6PTXsJnXgnB/sRWacfJRGJ2xIKXC1+UF6ISS/wIDAQABo4GW
MIGTMAkGA1UdEwQCMAAwHQYDVR0OBBYEFGSGjzbYyI7G7jRyIXwoesiE2UIQMEUG
A1UdIwQ+MDyAFBl/lTr2aGIMv52e3k4Fn3GQK6paoRmkFzAVMRMwEQYDVQQDDApM
YXphcnVzIENBggkA6v8OZPZnn+kwEwYDVR0lBAwwCgYIKwYBBQUHAwIwCwYDVR0P
BAQDAgeAMA0GCSqGSIb3DQEBCwUAA4IBAQCPpzIyaMsar9u+G0DOdqTDrAen3F7j
xbrQRKWR9TxjzOWybx9Ik3L4RwgWbCLGxI/vgLF1cmh7azY0CUSr4RR++MPV3AEx
cZ6sD5kUiqs29GYxzEpIikMu7lxDAzbTdUhtncOG2Z2fNY1yFfth5Uc9/SnK5AFb
BJLFJBDM+OKQEG15+r5NjHUw55lG1obney6UOMndpSsPp99EFr2AfjCamZzQVfQs
bkLVgdyXqKmA3IEUIj7xiF2QAa33xPA4i5L1mLOEQOqOlAOA8nEysNMSMJxUmayF
rePxpawsGnilVFYTGO5/u7sefeAlOVN1FizRHqNw/qlkR9SwXEYiLY8A
-----END CERTIFICATE-----
