Certificate:
    Data:
        Version: 3 (0x2)
        Serial Number:
            c5:79:88:1d:f6:02:9f:41:6d:42:dd:a8:7d:32:f1:f6
        Signature Algorithm: sha256WithRSAEncryption
        Issuer: CN=Lazarus CA
        Validity
            Not Before: Apr 10 01:02:02 2020 GMT
            Not After : Mar 26 01:02:02 2023 GMT
        Subject: CN=test100
        Subject Public Key Info:
            Public Key Algorithm: rsaEncryption
                RSA Public-Key: (2048 bit)
                Modulus:
                    00:a5:04:8b:88:49:5b:ba:ae:21:4d:e2:d4:11:96:
                    8f:12:97:18:03:a1:a0:c0:12:73:b8:bc:84:1c:e5:
                    3d:35:42:ac:44:c9:d6:de:42:dc:d4:b5:ce:c0:e6:
                    64:91:d4:3a:c3:d1:10:73:64:cb:95:9d:a5:92:6c:
                    74:67:e7:93:25:f4:73:cb:fe:7b:54:eb:a8:45:a6:
                    76:b0:44:95:3d:a5:eb:39:c8:45:58:ea:81:a0:6c:
                    9a:28:b7:a4:f0:ab:82:80:5d:fe:0d:ab:4e:ef:66:
                    43:ac:9e:2a:f2:8c:78:30:81:49:89:78:47:5d:86:
                    f2:af:25:67:70:d8:30:19:68:e7:64:3e:24:e4:47:
                    ec:49:c0:ce:bf:07:55:e6:49:0a:4d:7d:d1:42:c6:
                    bd:21:52:cb:30:ca:39:08:bc:6b:71:5c:ef:51:d2:
                    da:6d:30:7b:bb:9e:cd:4e:7c:13:5a:cd:ba:0a:86:
                    12:c2:44:fc:e7:8f:c1:1e:47:b2:ca:89:3a:7f:6f:
                    3d:e3:0b:3d:50:16:b6:8a:bc:16:fd:28:4f:89:1d:
                    39:f5:14:9c:53:a4:6c:b8:f0:1e:77:44:82:9a:90:
                    1d:53:75:2c:07:5b:7f:31:74:0c:b5:16:5c:93:df:
                    08:1c:90:43:13:24:ec:21:eb:98:1f:d4:4e:b6:12:
                    ec:73
                Exponent: 65537 (0x10001)
        X509v3 extensions:
            X509v3 Basic Constraints: 
                CA:FALSE
            X509v3 Subject Key Identifier: 
                24:2F:9B:B0:2A:5A:37:CE:F8:A0:8E:18:82:43:E2:2F:EC:B8:75:32
            X509v3 Authority Key Identifier: 
                keyid:19:7F:95:3A:F6:68:62:0C:BF:9D:9E:DE:4E:05:9F:71:90:2B:AA:5A
                DirName:/CN=Lazarus CA
                serial:EA:FF:0E:64:F6:67:9F:E9

            X509v3 Extended Key Usage: 
                TLS Web Client Authentication
            X509v3 Key Usage: 
                Digital Signature
    Signature Algorithm: sha256WithRSAEncryption
         75:39:9b:ec:81:8d:41:f7:6a:53:0d:8e:8f:c9:e9:ad:90:5c:
         28:c8:f4:4c:a6:2f:a1:f5:f0:41:da:f0:e6:26:25:d2:a4:a0:
         8e:da:f8:f9:33:9e:91:5f:6b:c0:42:ae:6d:f8:39:48:74:03:
         11:ee:04:5f:b9:45:9c:e8:23:de:48:66:d9:cc:e8:df:6a:09:
         89:9f:f8:11:be:3b:f0:1d:0f:ef:db:03:8a:00:b3:0b:db:9e:
         d9:62:7d:f2:38:1a:b6:46:39:c4:e5:f3:87:b6:f8:3d:d8:67:
         c2:33:6c:7e:66:ab:77:c1:22:0e:4a:2b:51:01:d8:f9:4b:a3:
         bf:1a:3a:7f:be:f1:29:a2:c7:c5:57:1f:17:7c:59:f1:9a:a0:
         02:36:ce:96:e5:39:d1:90:7e:5d:21:39:cc:fc:20:d7:25:e2:
         3f:3e:9c:e1:62:6a:0f:8a:36:11:da:08:b4:fe:ce:cd:e9:dc:
         2b:28:93:77:cc:a3:b5:69:79:f2:bb:1c:2a:b1:b7:7c:c7:a1:
         6c:f7:56:62:21:d8:0e:a9:ae:1d:58:bf:23:03:de:de:3c:e8:
         bf:52:ff:1b:ad:24:50:32:a0:69:68:93:61:a0:47:36:4f:6e:
         fb:e8:aa:69:3c:11:49:67:02:33:f1:b0:7d:bf:1c:47:a5:72:
         13:67:61:8f
-----BEGIN CERTIFICATE-----
MIIDSTCCAjGgAwIBAgIRAMV5iB32Ap9BbULdqH0y8fYwDQYJKoZIhvcNAQELBQAw
FTETMBEGA1UEAwwKTGF6YXJ1cyBDQTAeFw0yMDA0MTAwMTAyMDJaFw0yMzAzMjYw
MTAyMDJaMBIxEDAOBgNVBAMMB3Rlc3QxMDAwggEiMA0GCSqGSIb3DQEBAQUAA4IB
DwAwggEKAoIBAQClBIuISVu6riFN4tQRlo8SlxgDoaDAEnO4vIQc5T01QqxEydbe
QtzUtc7A5mSR1DrD0RBzZMuVnaWSbHRn55Ml9HPL/ntU66hFpnawRJU9pes5yEVY
6oGgbJoot6Twq4KAXf4Nq07vZkOsniryjHgwgUmJeEddhvKvJWdw2DAZaOdkPiTk
R+xJwM6/B1XmSQpNfdFCxr0hUsswyjkIvGtxXO9R0tptMHu7ns1OfBNazboKhhLC
RPznj8EeR7LKiTp/bz3jCz1QFraKvBb9KE+JHTn1FJxTpGy48B53RIKakB1TdSwH
W38xdAy1FlyT3wgckEMTJOwh65gf1E62EuxzAgMBAAGjgZYwgZMwCQYDVR0TBAIw
ADAdBgNVHQ4EFgQUJC+bsCpaN874oI4YgkPiL+y4dTIwRQYDVR0jBD4wPIAUGX+V
OvZoYgy/nZ7eTgWfcZArqlqhGaQXMBUxEzARBgNVBAMMCkxhemFydXMgQ0GCCQDq
/w5k9mef6TATBgNVHSUEDDAKBggrBgEFBQcDAjALBgNVHQ8EBAMCB4AwDQYJKoZI
hvcNAQELBQADggEBAHU5m+yBjUH3alMNjo/J6a2QXCjI9EymL6H18EHa8OYmJdKk
oI7a+PkznpFfa8BCrm34OUh0AxHuBF+5RZzoI95IZtnM6N9qCYmf+BG+O/AdD+/b
A4oAswvbntliffI4GrZGOcTl84e2+D3YZ8IzbH5mq3fBIg5KK1EB2PlLo78aOn++
8Smix8VXHxd8WfGaoAI2zpblOdGQfl0hOcz8INcl4j8+nOFiag+KNhHaCLT+zs3p
3Csok3fMo7VpefK7HCqxt3zHoWz3VmIh2A6prh1YvyMD3t486L9S/xutJFAyoGlo
k2GgRzZPbvvoqmk8EUlnAjPxsH2/HEelchNnYY8=
-----END CERTIFICATE-----
