Certificate:
    Data:
        Version: 3 (0x2)
        Serial Number:
            cb:ba:f1:24:fd:08:bb:be:4b:1c:dc:ac:39:5d:9f:5c
    Signature Algorithm: sha256WithRSAEncryption
        Issuer: CN=Lazarus CA
        Validity
            Not Before: Apr 10 01:15:39 2019 GMT
            Not After : Mar 25 01:15:39 2022 GMT
        Subject: CN=saint99
        Subject Public Key Info:
            Public Key Algorithm: rsaEncryption
                Public-Key: (2048 bit)
                Modulus:
                    00:e9:77:da:aa:78:d2:db:8b:85:8e:68:9f:4e:6d:
                    14:e1:ce:4d:a1:e6:57:3e:98:aa:0d:0e:58:0d:7b:
                    2f:6b:bd:be:10:77:51:c2:11:d9:f8:25:bb:e4:da:
                    bb:73:5f:b8:d7:8b:34:8a:00:b6:ee:b3:63:1d:e4:
                    ef:39:3e:70:58:55:34:b0:8d:77:57:5d:67:cb:5a:
                    4e:b7:27:4e:81:0b:cd:cc:52:16:30:94:ec:d5:5d:
                    78:ce:0a:54:c3:4b:e6:75:e3:74:77:29:f4:61:60:
                    8b:34:ee:ad:35:8d:47:4c:26:24:64:9e:d2:f3:25:
                    7c:c2:0d:0c:ca:3f:12:21:4b:7f:5c:a6:9b:c0:30:
                    29:1f:46:2f:87:69:ef:81:72:fc:eb:60:14:62:64:
                    f1:5b:87:28:38:d0:b4:3f:ca:1a:d1:ea:c1:b4:e1:
                    58:62:e2:15:c9:9e:9f:ef:cc:e5:ee:6e:9a:28:ef:
                    01:8e:65:fd:91:3e:b6:4c:ac:63:6f:7a:f1:79:86:
                    d3:d1:22:db:73:b0:b9:06:ab:66:3f:33:b5:77:66:
                    f1:02:9d:7e:ff:bf:a3:13:cf:47:d0:3d:a0:91:9e:
                    3c:c2:11:2b:23:4f:02:8f:16:7f:c1:f7:dc:03:99:
                    c6:ec:26:26:86:fb:24:c1:24:34:cf:d5:5e:25:4f:
                    80:17
                Exponent: 65537 (0x10001)
        X509v3 extensions:
            X509v3 Basic Constraints: 
                CA:FALSE
            X509v3 Subject Key Identifier: 
                17:A4:F9:1D:13:BC:D6:78:3C:1E:F5:62:6B:23:76:54:97:D5:70:D2
            X509v3 Authority Key Identifier: 
                keyid:19:7F:95:3A:F6:68:62:0C:BF:9D:9E:DE:4E:05:9F:71:90:2B:AA:5A
                DirName:/CN=Lazarus CA
                serial:EA:FF:0E:64:F6:67:9F:E9

            X509v3 Extended Key Usage: 
                TLS Web Client Authentication
            X509v3 Key Usage: 
                Digital Signature
    Signature Algorithm: sha256WithRSAEncryption
         cb:5d:4e:21:a2:c3:7c:64:b9:86:34:24:91:1e:e2:d8:08:1d:
         9f:3a:ce:5c:cd:e8:72:47:4c:6b:2c:b9:a7:fb:b7:e3:c9:cf:
         70:10:0e:ef:d4:47:11:84:33:e5:cc:66:a2:da:b5:07:e6:3a:
         9b:bd:32:c1:f3:ea:e5:6c:5e:9a:8b:e5:ae:b3:96:ee:bd:63:
         4e:31:a1:cb:e5:d8:56:c8:d8:2f:2b:cd:d8:b9:f0:a0:d9:17:
         bf:b6:d0:63:37:81:b9:8f:12:63:4d:91:43:80:c9:6a:ef:05:
         e8:e2:39:8f:6a:5e:e3:9e:b0:59:d9:d3:1e:9f:22:da:8f:92:
         57:19:01:85:ea:88:51:f9:be:a1:0c:25:ca:33:8f:74:6e:82:
         83:da:13:a9:9b:c1:1b:fd:91:eb:5c:9c:67:74:71:60:47:8c:
         a1:ec:1e:42:31:39:fe:e1:3f:f5:d5:8b:c8:f5:2e:ca:e6:67:
         0b:ea:10:3d:fe:9d:42:2e:cb:3b:18:40:3b:8a:5a:d1:7d:8d:
         8e:26:5e:2d:c7:71:be:91:09:a4:cf:30:70:90:1d:1b:d2:ba:
         da:8c:69:6f:85:11:bf:61:0f:7a:03:06:5c:22:6c:99:67:81:
         07:a2:01:2b:53:c6:f9:c6:7d:a7:90:a3:1b:09:09:6b:ca:d4:
         55:66:0d:b7
-----BEGIN CERTIFICATE-----
MIIDSTCCAjGgAwIBAgIRAMu68ST9CLu+SxzcrDldn1wwDQYJKoZIhvcNAQELBQAw
FTETMBEGA1UEAwwKTGF6YXJ1cyBDQTAeFw0xOTA0MTAwMTE1MzlaFw0yMjAzMjUw
MTE1MzlaMBIxEDAOBgNVBAMMB3NhaW50OTkwggEiMA0GCSqGSIb3DQEBAQUAA4IB
DwAwggEKAoIBAQDpd9qqeNLbi4WOaJ9ObRThzk2h5lc+mKoNDlgNey9rvb4Qd1HC
Edn4Jbvk2rtzX7jXizSKALbus2Md5O85PnBYVTSwjXdXXWfLWk63J06BC83MUhYw
lOzVXXjOClTDS+Z143R3KfRhYIs07q01jUdMJiRkntLzJXzCDQzKPxIhS39cppvA
MCkfRi+Hae+BcvzrYBRiZPFbhyg40LQ/yhrR6sG04Vhi4hXJnp/vzOXubpoo7wGO
Zf2RPrZMrGNvevF5htPRIttzsLkGq2Y/M7V3ZvECnX7/v6MTz0fQPaCRnjzCESsj
TwKPFn/B99wDmcbsJiaG+yTBJDTP1V4lT4AXAgMBAAGjgZYwgZMwCQYDVR0TBAIw
ADAdBgNVHQ4EFgQUF6T5HRO81ng8HvViayN2VJfVcNIwRQYDVR0jBD4wPIAUGX+V
OvZoYgy/nZ7eTgWfcZArqlqhGaQXMBUxEzARBgNVBAMMCkxhemFydXMgQ0GCCQDq
/w5k9mef6TATBgNVHSUEDDAKBggrBgEFBQcDAjALBgNVHQ8EBAMCB4AwDQYJKoZI
hvcNAQELBQADggEBAMtdTiGiw3xkuYY0JJEe4tgIHZ86zlzN6HJHTGssuaf7t+PJ
z3AQDu/URxGEM+XMZqLatQfmOpu9MsHz6uVsXpqL5a6zlu69Y04xocvl2FbI2C8r
zdi58KDZF7+20GM3gbmPEmNNkUOAyWrvBejiOY9qXuOesFnZ0x6fItqPklcZAYXq
iFH5vqEMJcozj3RugoPaE6mbwRv9ketcnGd0cWBHjKHsHkIxOf7hP/XVi8j1Lsrm
ZwvqED3+nUIuyzsYQDuKWtF9jY4mXi3Hcb6RCaTPMHCQHRvSutqMaW+FEb9hD3oD
BlwibJlngQeiAStTxvnGfaeQoxsJCWvK1FVmDbc=
-----END CERTIFICATE-----
