Certificate:
    Data:
        Version: 3 (0x2)
        Serial Number:
            d4:54:40:88:9e:fb:74:72:a8:da:42:bb:64:c3:90:22
    Signature Algorithm: sha256WithRSAEncryption
        Issuer: CN=Lazarus CA
        Validity
            Not Before: Apr  6 15:13:52 2019 GMT
            Not After : Mar 21 15:13:52 2022 GMT
        Subject: CN=test303
        Subject Public Key Info:
            Public Key Algorithm: rsaEncryption
                Public-Key: (2048 bit)
                Modulus:
                    00:bb:56:33:be:a6:83:2a:42:86:77:ee:86:03:ca:
                    a0:cc:1b:93:3b:2e:b1:2d:f1:e0:c7:91:55:f5:2e:
                    94:1b:16:a2:c6:0a:59:97:27:c4:1b:a9:b3:bb:40:
                    45:60:3c:40:c4:3c:da:7a:14:d4:b7:d8:d6:2c:c0:
                    78:32:5c:1e:68:58:c7:6c:9c:af:67:6f:68:eb:93:
                    f3:1c:c6:50:6e:f3:4c:17:bf:bd:bb:76:7d:19:7a:
                    31:7a:95:9a:da:2b:dc:25:9b:71:7d:76:99:5d:41:
                    64:7a:d0:bb:56:3c:75:b4:d0:e2:e3:cf:01:24:73:
                    1d:54:a0:71:a7:96:94:7e:e2:c8:a4:93:77:8f:ca:
                    46:b9:f1:8a:1e:13:0e:a9:ae:33:93:fd:19:e1:e1:
                    e8:cb:03:e7:7b:9b:5e:7f:8b:7d:32:aa:c4:ab:5a:
                    4b:b3:b2:e2:6b:1c:65:af:3c:72:ac:30:02:83:29:
                    1b:e8:53:29:11:ed:64:9a:cb:a3:62:03:73:42:c8:
                    f5:b3:03:8f:fa:0c:f5:7f:db:d0:6e:d3:95:97:2f:
                    69:9f:6f:b2:44:3e:c3:fb:ab:e6:69:4a:9b:00:39:
                    4c:30:27:2b:e8:26:5b:b4:ab:29:d5:8b:01:8e:c8:
                    54:0f:2a:71:b4:9e:e2:27:d7:a5:77:80:20:aa:64:
                    9d:55
                Exponent: 65537 (0x10001)
        X509v3 extensions:
            X509v3 Basic Constraints: 
                CA:FALSE
            X509v3 Subject Key Identifier: 
                2C:EE:A1:60:3F:DD:9D:B1:98:DE:F9:6E:6D:C4:A1:F1:AD:73:2F:6A
            X509v3 Authority Key Identifier: 
                keyid:19:7F:95:3A:F6:68:62:0C:BF:9D:9E:DE:4E:05:9F:71:90:2B:AA:5A
                DirName:/CN=Lazarus CA
                serial:EA:FF:0E:64:F6:67:9F:E9

            X509v3 Extended Key Usage: 
                TLS Web Client Authentication
            X509v3 Key Usage: 
                Digital Signature
    Signature Algorithm: sha256WithRSAEncryption
         a6:3c:8a:59:46:7d:b6:d6:7d:ee:8c:eb:db:67:ac:af:58:7c:
         2c:62:0f:e3:29:21:4b:a4:0c:47:4e:9c:c7:31:c7:fd:f1:45:
         51:fd:57:e4:37:e2:b5:21:fd:8a:b3:ea:a3:c4:f2:87:eb:6c:
         8c:45:aa:27:d8:81:ba:02:e7:a6:3c:d8:fc:f7:d1:cb:31:b1:
         ae:99:dc:f3:5f:a5:7d:18:a8:ce:44:20:25:89:2d:73:a2:21:
         2a:19:5a:e9:c0:ce:40:a5:d9:58:b9:19:1f:4d:bc:9b:f7:cd:
         83:68:48:96:be:39:57:67:a4:79:80:b3:b5:b5:8b:6d:7c:5b:
         63:cd:1a:21:14:a3:bf:8f:ed:d3:93:6d:37:65:45:42:a5:e1:
         c0:f5:e0:35:56:bc:f9:b3:66:1e:56:0e:b1:0d:8e:73:d5:ed:
         a2:ef:b9:48:0f:03:20:66:8a:7c:4e:78:98:33:b9:3f:4b:1d:
         05:1e:39:16:a7:cf:3c:b9:5e:f6:0d:5c:d6:2e:91:d6:b6:43:
         fe:ba:eb:b2:93:77:b0:20:43:c5:01:09:2c:bb:90:3c:23:8f:
         f4:0f:64:2c:53:67:a4:7d:51:23:89:f2:fa:7a:01:d2:2f:37:
         33:98:87:05:fd:d8:cf:16:2f:c5:62:36:70:6b:0c:af:b9:ca:
         b9:aa:22:ed
-----BEGIN CERTIFICATE-----
MIIDSTCCAjGgAwIBAgIRANRUQIie+3RyqNpCu2TDkCIwDQYJKoZIhvcNAQELBQAw
FTETMBEGA1UEAwwKTGF6YXJ1cyBDQTAeFw0xOTA0MDYxNTEzNTJaFw0yMjAzMjEx
NTEzNTJaMBIxEDAOBgNVBAMMB3Rlc3QzMDMwggEiMA0GCSqGSIb3DQEBAQUAA4IB
DwAwggEKAoIBAQC7VjO+poMqQoZ37oYDyqDMG5M7LrEt8eDHkVX1LpQbFqLGClmX
J8QbqbO7QEVgPEDEPNp6FNS32NYswHgyXB5oWMdsnK9nb2jrk/McxlBu80wXv727
dn0ZejF6lZraK9wlm3F9dpldQWR60LtWPHW00OLjzwEkcx1UoHGnlpR+4sikk3eP
yka58YoeEw6prjOT/Rnh4ejLA+d7m15/i30yqsSrWkuzsuJrHGWvPHKsMAKDKRvo
UykR7WSay6NiA3NCyPWzA4/6DPV/29Bu05WXL2mfb7JEPsP7q+ZpSpsAOUwwJyvo
Jlu0qynViwGOyFQPKnG0nuIn16V3gCCqZJ1VAgMBAAGjgZYwgZMwCQYDVR0TBAIw
ADAdBgNVHQ4EFgQULO6hYD/dnbGY3vlubcSh8a1zL2owRQYDVR0jBD4wPIAUGX+V
OvZoYgy/nZ7eTgWfcZArqlqhGaQXMBUxEzARBgNVBAMMCkxhemFydXMgQ0GCCQDq
/w5k9mef6TATBgNVHSUEDDAKBggrBgEFBQcDAjALBgNVHQ8EBAMCB4AwDQYJKoZI
hvcNAQELBQADggEBAKY8illGfbbWfe6M69tnrK9YfCxiD+MpIUukDEdOnMcxx/3x
RVH9V+Q34rUh/Yqz6qPE8ofrbIxFqifYgboC56Y82Pz30csxsa6Z3PNfpX0YqM5E
ICWJLXOiISoZWunAzkCl2Vi5GR9NvJv3zYNoSJa+OVdnpHmAs7W1i218W2PNGiEU
o7+P7dOTbTdlRUKl4cD14DVWvPmzZh5WDrENjnPV7aLvuUgPAyBminxOeJgzuT9L
HQUeORanzzy5XvYNXNYukda2Q/6667KTd7AgQ8UBCSy7kDwjj/QPZCxTZ6R9USOJ
8vp6AdIvNzOYhwX92M8WL8ViNnBrDK+5yrmqIu0=
-----END CERTIFICATE-----
