Certificate:
    Data:
        Version: 3 (0x2)
        Serial Number:
            df:2b:28:8d:c9:8e:ce:31:57:00:ee:b0:a2:d9:ec:20
    Signature Algorithm: sha256WithRSAEncryption
        Issuer: CN=Lazarus CA
        Validity
            Not Before: Apr  4 00:10:49 2019 GMT
            Not After : Mar 19 00:10:49 2022 GMT
        Subject: CN=gorilla
        Subject Public Key Info:
            Public Key Algorithm: rsaEncryption
                Public-Key: (2048 bit)
                Modulus:
                    00:96:84:c6:49:9b:0c:2a:53:92:02:93:18:cb:b6:
                    41:e7:9e:dc:46:2e:dd:bd:7c:e6:ec:19:64:90:f8:
                    50:8d:c1:fc:15:3a:85:6b:09:09:ac:1b:a0:e3:ea:
                    57:45:30:25:95:90:37:0f:77:51:99:35:00:e7:51:
                    95:ce:03:35:b3:9c:c1:ea:99:5e:83:18:80:fb:f2:
                    45:b6:3e:ec:1c:a2:d5:e8:ff:df:be:6a:c3:6b:b2:
                    d7:e8:eb:25:95:86:99:01:03:66:88:9b:cb:8e:76:
                    93:a7:28:6e:e0:13:23:15:53:00:3b:9e:0c:33:fa:
                    1f:94:b5:dc:23:d8:9a:f8:aa:f0:67:85:33:bd:a3:
                    56:28:63:92:8d:48:1c:a9:4c:2b:dc:ed:7f:ee:1e:
                    c9:c3:31:85:b6:94:91:75:aa:eb:7c:22:e9:4a:67:
                    b9:ad:1a:1e:6e:0d:c2:9d:54:c0:5e:28:cd:e2:44:
                    86:5e:53:73:a1:b6:b6:9c:9b:94:fe:57:2c:c8:5f:
                    39:21:6b:08:3f:a2:62:ec:af:cf:17:6e:ce:e1:2c:
                    9a:87:d5:23:a3:dd:98:8b:06:89:5d:f2:19:5f:a1:
                    34:c8:64:13:65:97:03:c0:d8:13:c4:c2:e8:92:5b:
                    8a:82:8a:1e:18:af:e7:5f:c2:74:57:04:ae:9a:40:
                    7b:f7
                Exponent: 65537 (0x10001)
        X509v3 extensions:
            X509v3 Basic Constraints: 
                CA:FALSE
            X509v3 Subject Key Identifier: 
                13:68:B7:DC:C9:6F:BE:B2:25:D4:35:89:1B:22:97:3B:1C:21:5A:5D
            X509v3 Authority Key Identifier: 
                keyid:19:7F:95:3A:F6:68:62:0C:BF:9D:9E:DE:4E:05:9F:71:90:2B:AA:5A
                DirName:/CN=Lazarus CA
                serial:EA:FF:0E:64:F6:67:9F:E9

            X509v3 Extended Key Usage: 
                TLS Web Client Authentication
            X509v3 Key Usage: 
                Digital Signature
    Signature Algorithm: sha256WithRSAEncryption
         a3:f7:6f:51:2c:a8:e6:7c:0e:a1:19:9e:4d:23:91:b7:a6:69:
         c3:f4:75:bb:57:e0:37:c0:39:24:63:de:9e:b2:db:90:28:82:
         0f:a5:67:b2:75:3a:9f:da:65:af:30:91:3e:0d:2c:e4:21:b5:
         96:f6:c6:15:0b:75:14:3c:0e:25:54:7a:50:79:49:e3:d9:7c:
         f8:84:56:d6:43:c5:c0:81:a7:b2:5e:dd:ca:7e:df:36:bf:0d:
         18:1b:0e:4d:30:2d:a6:8d:2a:ed:68:2a:37:a9:6f:1c:4e:bd:
         ce:e2:da:25:11:27:f4:c1:cf:a6:a0:18:8c:50:9a:fe:55:ce:
         6b:79:12:0f:54:1f:71:80:0e:ea:a2:78:a4:b2:9e:64:88:14:
         bc:ff:ea:0d:91:0f:98:9d:db:a8:43:08:3a:f7:00:3b:35:30:
         e2:7a:df:19:54:4b:24:2d:fc:ec:0b:1d:bc:2b:0d:0b:a6:4f:
         2b:29:d7:2e:8d:89:0c:45:5f:3e:9f:e1:d5:04:1d:bf:37:22:
         19:93:cf:30:fb:49:df:e9:60:84:c4:ea:5c:64:2f:a2:41:1a:
         20:b0:f5:5d:e4:97:20:68:92:7b:3e:f1:2f:dd:a0:cb:21:c6:
         43:2d:0a:b8:6f:6e:90:f2:57:d5:89:67:3d:25:02:48:dc:ce:
         2f:b0:68:29
-----BEGIN CERTIFICATE-----
MIIDSTCCAjGgAwIBAgIRAN8rKI3Jjs4xVwDusKLZ7CAwDQYJKoZIhvcNAQELBQAw
FTETMBEGA1UEAwwKTGF6YXJ1cyBDQTAeFw0xOTA0MDQwMDEwNDlaFw0yMjAzMTkw
MDEwNDlaMBIxEDAOBgNVBAMMB2dvcmlsbGEwggEiMA0GCSqGSIb3DQEBAQUAA4IB
DwAwggEKAoIBAQCWhMZJmwwqU5ICkxjLtkHnntxGLt29fObsGWSQ+FCNwfwVOoVr
CQmsG6Dj6ldFMCWVkDcPd1GZNQDnUZXOAzWznMHqmV6DGID78kW2PuwcotXo/9++
asNrstfo6yWVhpkBA2aIm8uOdpOnKG7gEyMVUwA7ngwz+h+Utdwj2Jr4qvBnhTO9
o1YoY5KNSBypTCvc7X/uHsnDMYW2lJF1qut8IulKZ7mtGh5uDcKdVMBeKM3iRIZe
U3Ohtracm5T+VyzIXzkhawg/omLsr88Xbs7hLJqH1SOj3ZiLBold8hlfoTTIZBNl
lwPA2BPEwuiSW4qCih4Yr+dfwnRXBK6aQHv3AgMBAAGjgZYwgZMwCQYDVR0TBAIw
ADAdBgNVHQ4EFgQUE2i33MlvvrIl1DWJGyKXOxwhWl0wRQYDVR0jBD4wPIAUGX+V
OvZoYgy/nZ7eTgWfcZArqlqhGaQXMBUxEzARBgNVBAMMCkxhemFydXMgQ0GCCQDq
/w5k9mef6TATBgNVHSUEDDAKBggrBgEFBQcDAjALBgNVHQ8EBAMCB4AwDQYJKoZI
hvcNAQELBQADggEBAKP3b1EsqOZ8DqEZnk0jkbemacP0dbtX4DfAOSRj3p6y25Ao
gg+lZ7J1Op/aZa8wkT4NLOQhtZb2xhULdRQ8DiVUelB5SePZfPiEVtZDxcCBp7Je
3cp+3za/DRgbDk0wLaaNKu1oKjepbxxOvc7i2iURJ/TBz6agGIxQmv5Vzmt5Eg9U
H3GADuqieKSynmSIFLz/6g2RD5id26hDCDr3ADs1MOJ63xlUSyQt/OwLHbwrDQum
Tysp1y6NiQxFXz6f4dUEHb83IhmTzzD7Sd/pYITE6lxkL6JBGiCw9V3klyBokns+
8S/doMshxkMtCrhvbpDyV9WJZz0lAkjczi+waCk=
-----END CERTIFICATE-----
