Certificate:
    Data:
        Version: 3 (0x2)
        Serial Number:
            e3:32:06:5b:04:3a:31:2b:84:88:2a:74:65:a3:8a:5b
        Signature Algorithm: sha256WithRSAEncryption
        Issuer: CN=Lazarus CA
        Validity
            Not Before: Mar 26 22:21:50 2020 GMT
            Not After : Mar 11 22:21:50 2023 GMT
        Subject: CN=FREE__NDY__1585261310
        Subject Public Key Info:
            Public Key Algorithm: rsaEncryption
                RSA Public-Key: (2048 bit)
                Modulus:
                    00:b6:0f:29:9a:dd:a2:f6:7f:ac:79:a5:4c:00:e7:
                    01:b0:02:f6:2c:71:0f:aa:32:6a:72:01:ec:36:eb:
                    51:96:73:9c:04:94:0d:8a:8a:bf:0d:ba:e0:97:1a:
                    38:ce:a5:c9:13:56:11:1f:74:32:25:0a:fc:f1:36:
                    0b:22:59:1c:42:26:b1:f8:e4:6a:cf:43:1f:38:18:
                    1e:72:38:82:e6:68:ec:8e:23:d5:85:de:25:96:c4:
                    63:ed:38:a7:15:13:29:28:f7:4e:53:61:8e:cc:bf:
                    29:b8:25:37:5d:bf:1d:b3:72:40:cb:94:40:b0:cf:
                    24:90:1b:87:d5:a6:6b:96:91:35:fc:33:d3:14:b4:
                    80:92:7a:28:11:f7:91:14:71:87:7a:91:c5:b0:3d:
                    4a:36:34:d8:da:5e:65:0f:e0:0b:14:50:6d:1d:6d:
                    82:04:30:1b:38:00:af:d1:25:47:a3:79:b6:ac:e4:
                    8c:72:05:27:27:4e:ac:53:14:0b:1d:49:88:11:7b:
                    07:f3:f3:48:02:05:df:4b:50:86:d2:a1:72:aa:b4:
                    76:ae:01:94:79:3b:05:ad:c2:e9:f7:be:ef:0f:66:
                    73:dd:f2:7e:9f:64:01:30:bd:4f:52:f2:fe:50:8f:
                    1a:91:3d:11:de:df:bd:99:50:5a:f6:bc:dc:80:a6:
                    8e:4f
                Exponent: 65537 (0x10001)
        X509v3 extensions:
            X509v3 Basic Constraints: 
                CA:FALSE
            X509v3 Subject Key Identifier: 
                88:C7:3C:91:EA:AE:7A:EE:A4:D8:63:03:3B:E3:19:BE:CD:42:26:3D
            X509v3 Authority Key Identifier: 
                keyid:19:7F:95:3A:F6:68:62:0C:BF:9D:9E:DE:4E:05:9F:71:90:2B:AA:5A
                DirName:/CN=Lazarus CA
                serial:EA:FF:0E:64:F6:67:9F:E9

            X509v3 Extended Key Usage: 
                TLS Web Client Authentication
            X509v3 Key Usage: 
                Digital Signature
    Signature Algorithm: sha256WithRSAEncryption
         33:e2:1d:12:3c:3c:3b:06:a3:21:07:cb:44:dc:42:99:0f:92:
         3e:93:e2:e6:9e:0f:82:68:af:7a:ae:56:01:56:33:1e:d7:b0:
         ba:f5:f2:ae:16:45:0c:51:65:6f:fb:d3:66:fe:23:f0:27:25:
         6d:16:ae:a8:dc:7c:0e:c5:8b:77:a9:ac:02:27:2f:23:b9:de:
         d0:40:cf:5f:74:24:aa:5c:6d:1a:49:c4:14:60:41:35:83:a5:
         b9:0e:63:af:1c:3b:8d:f9:af:4d:e5:54:57:16:1e:6c:f4:d4:
         92:20:57:2d:41:c4:16:4e:54:a9:ba:4f:c5:fb:92:75:3e:6c:
         e2:e8:73:4c:d4:1c:30:9b:5d:84:5a:24:6b:bc:ab:62:ed:63:
         7d:77:a5:2a:a7:bd:cc:5a:bb:5c:46:e1:5e:23:f8:18:ef:4b:
         3f:fa:81:bf:d4:89:9b:48:56:b9:25:a4:51:47:c4:4d:b5:c8:
         e7:f8:d3:e9:ef:c4:8a:ed:df:eb:58:9e:81:8e:69:da:d4:91:
         a6:11:4e:87:f6:86:8d:e4:43:fb:91:0f:ce:a3:45:80:31:da:
         b2:93:ea:7f:cd:98:4d:3c:cf:67:a6:22:47:b1:e4:7d:a2:5b:
         2c:30:ee:9d:19:4b:09:5b:81:c0:45:d2:f0:d3:e4:15:95:47:
         8e:a6:9a:62
-----BEGIN CERTIFICATE-----
MIIDVzCCAj+gAwIBAgIRAOMyBlsEOjErhIgqdGWjilswDQYJKoZIhvcNAQELBQAw
FTETMBEGA1UEAwwKTGF6YXJ1cyBDQTAeFw0yMDAzMjYyMjIxNTBaFw0yMzAzMTEy
MjIxNTBaMCAxHjAcBgNVBAMMFUZSRUVfX05EWV9fMTU4NTI2MTMxMDCCASIwDQYJ
KoZIhvcNAQEBBQADggEPADCCAQoCggEBALYPKZrdovZ/rHmlTADnAbAC9ixxD6oy
anIB7DbrUZZznASUDYqKvw264JcaOM6lyRNWER90MiUK/PE2CyJZHEImsfjkas9D
HzgYHnI4guZo7I4j1YXeJZbEY+04pxUTKSj3TlNhjsy/KbglN12/HbNyQMuUQLDP
JJAbh9Wma5aRNfwz0xS0gJJ6KBH3kRRxh3qRxbA9SjY02NpeZQ/gCxRQbR1tggQw
GzgAr9ElR6N5tqzkjHIFJydOrFMUCx1JiBF7B/PzSAIF30tQhtKhcqq0dq4BlHk7
Ba3C6fe+7w9mc93yfp9kATC9T1Ly/lCPGpE9Ed7fvZlQWva83ICmjk8CAwEAAaOB
ljCBkzAJBgNVHRMEAjAAMB0GA1UdDgQWBBSIxzyR6q567qTYYwM74xm+zUImPTBF
BgNVHSMEPjA8gBQZf5U69mhiDL+dnt5OBZ9xkCuqWqEZpBcwFTETMBEGA1UEAwwK
TGF6YXJ1cyBDQYIJAOr/DmT2Z5/pMBMGA1UdJQQMMAoGCCsGAQUFBwMCMAsGA1Ud
DwQEAwIHgDANBgkqhkiG9w0BAQsFAAOCAQEAM+IdEjw8OwajIQfLRNxCmQ+SPpPi
5p4Pgmiveq5WAVYzHtewuvXyrhZFDFFlb/vTZv4j8CclbRauqNx8DsWLd6msAicv
I7ne0EDPX3QkqlxtGknEFGBBNYOluQ5jrxw7jfmvTeVUVxYebPTUkiBXLUHEFk5U
qbpPxfuSdT5s4uhzTNQcMJtdhFoka7yrYu1jfXelKqe9zFq7XEbhXiP4GO9LP/qB
v9SJm0hWuSWkUUfETbXI5/jT6e/Eiu3f61iegY5p2tSRphFOh/aGjeRD+5EPzqNF
gDHaspPqf82YTTzPZ6YiR7HkfaJbLDDunRlLCVuBwEXS8NPkFZVHjqaaYg==
-----END CERTIFICATE-----
