Certificate:
    Data:
        Version: 3 (0x2)
        Serial Number:
            e8:d7:86:99:9c:4c:0e:9f:21:84:fc:65:4d:f2:5f:59
        Signature Algorithm: sha256WithRSAEncryption
        Issuer: CN=Lazarus CA
        Validity
            Not Before: Aug 26 06:04:50 2019 GMT
            Not After : Aug 10 06:04:50 2022 GMT
        Subject: CN=FREE__MzA__1566799490
        Subject Public Key Info:
            Public Key Algorithm: rsaEncryption
                RSA Public-Key: (2048 bit)
                Modulus:
                    00:ea:30:cb:9a:cd:b4:13:41:e8:70:c2:5d:ae:c8:
                    82:df:ff:7a:e8:c1:76:56:17:11:cd:2d:e7:eb:ad:
                    37:21:e2:79:2a:f6:4a:9f:58:65:c5:ff:a1:14:23:
                    bf:1a:0e:a5:66:a4:27:a1:c8:11:94:05:70:19:1c:
                    f8:44:4f:c7:7c:35:88:65:78:4a:0f:98:e6:87:f4:
                    bd:ae:7e:fc:3a:b8:1b:ce:c2:93:cb:e4:39:d3:61:
                    88:54:bf:fc:b0:d1:c8:2f:0b:bb:91:67:77:01:c9:
                    8b:dd:9e:f9:44:81:c3:46:8d:f1:ee:7a:5e:99:93:
                    f2:cd:ea:3b:6d:cf:0e:5d:b3:19:ea:4d:e8:de:d9:
                    a8:ed:0a:6d:ec:c5:d2:a1:07:0c:a0:d4:d3:6c:4c:
                    ea:88:1e:0a:62:87:c9:35:82:6b:64:27:74:de:c0:
                    62:ce:39:87:3f:4c:27:c0:de:8e:b7:68:0a:63:e6:
                    00:47:42:70:17:f9:f1:0e:de:fb:65:ca:f2:40:7e:
                    30:e3:9b:ce:e7:eb:c7:b5:ee:1f:f5:90:f5:d4:ee:
                    7c:9d:c6:97:b4:12:b5:e7:af:bc:fb:b9:aa:7e:61:
                    7e:04:5a:b5:84:4f:45:33:da:6f:75:2d:27:d1:f3:
                    1f:a6:cf:28:83:33:11:9d:8b:51:dd:cd:80:ce:1b:
                    b5:cb
                Exponent: 65537 (0x10001)
        X509v3 extensions:
            X509v3 Basic Constraints: 
                CA:FALSE
            X509v3 Subject Key Identifier: 
                79:FE:4D:DE:DC:27:E7:0C:8A:00:A2:24:A0:7A:17:54:24:14:97:1F
            X509v3 Authority Key Identifier: 
                keyid:19:7F:95:3A:F6:68:62:0C:BF:9D:9E:DE:4E:05:9F:71:90:2B:AA:5A
                DirName:/CN=Lazarus CA
                serial:EA:FF:0E:64:F6:67:9F:E9

            X509v3 Extended Key Usage: 
                TLS Web Client Authentication
            X509v3 Key Usage: 
                Digital Signature
    Signature Algorithm: sha256WithRSAEncryption
         21:f7:87:c8:56:4c:f7:59:bf:62:d1:b3:24:ea:b4:19:ad:9c:
         ac:42:90:dd:bd:15:7a:a7:a4:8d:a7:2e:c9:18:a3:b7:c9:0a:
         15:11:df:d0:7a:7d:e8:2b:88:59:7a:32:be:06:1c:31:5a:cb:
         37:7e:fe:d7:5d:ff:d0:35:72:58:21:6b:bd:8a:70:65:6a:be:
         33:da:3a:37:63:28:ff:11:b0:85:fe:af:11:3e:68:e8:b1:5f:
         17:21:bc:36:54:26:f9:37:84:91:0d:28:c4:f6:7c:27:9c:08:
         b7:18:5a:83:a8:2f:8e:38:4c:2c:1b:39:21:e3:7d:f8:ad:de:
         94:85:05:36:0f:42:25:f0:ef:ce:41:a1:9b:fd:20:10:cc:56:
         70:7e:77:06:0a:30:81:92:a4:5b:fe:c6:12:c4:09:53:6a:17:
         d5:fd:c7:f3:4f:1f:1c:a1:bf:ac:b3:3a:36:62:a5:ec:24:b1:
         ba:4f:37:b1:d5:d4:d6:21:eb:42:43:01:67:9b:a7:8c:04:f2:
         ef:7d:a1:9e:80:78:36:3a:e7:57:fb:ca:6f:07:21:f1:39:cb:
         25:e0:6e:41:43:f5:2e:5d:05:2c:ad:80:81:8e:11:cf:5f:9f:
         b0:49:0a:81:c7:24:e8:28:2b:3a:6f:7c:69:2b:08:7e:6a:1a:
         33:2b:24:d4
-----BEGIN CERTIFICATE-----
MIIDVzCCAj+gAwIBAgIRAOjXhpmcTA6fIYT8ZU3yX1kwDQYJKoZIhvcNAQELBQAw
FTETMBEGA1UEAwwKTGF6YXJ1cyBDQTAeFw0xOTA4MjYwNjA0NTBaFw0yMjA4MTAw
NjA0NTBaMCAxHjAcBgNVBAMMFUZSRUVfX016QV9fMTU2Njc5OTQ5MDCCASIwDQYJ
KoZIhvcNAQEBBQADggEPADCCAQoCggEBAOowy5rNtBNB6HDCXa7Igt//eujBdlYX
Ec0t5+utNyHieSr2Sp9YZcX/oRQjvxoOpWakJ6HIEZQFcBkc+ERPx3w1iGV4Sg+Y
5of0va5+/Dq4G87Ck8vkOdNhiFS//LDRyC8Lu5FndwHJi92e+USBw0aN8e56XpmT
8s3qO23PDl2zGepN6N7ZqO0KbezF0qEHDKDU02xM6ogeCmKHyTWCa2QndN7AYs45
hz9MJ8DejrdoCmPmAEdCcBf58Q7e+2XK8kB+MOObzufrx7XuH/WQ9dTufJ3Gl7QS
teevvPu5qn5hfgRatYRPRTPab3UtJ9HzH6bPKIMzEZ2LUd3NgM4btcsCAwEAAaOB
ljCBkzAJBgNVHRMEAjAAMB0GA1UdDgQWBBR5/k3e3CfnDIoAoiSgehdUJBSXHzBF
BgNVHSMEPjA8gBQZf5U69mhiDL+dnt5OBZ9xkCuqWqEZpBcwFTETMBEGA1UEAwwK
TGF6YXJ1cyBDQYIJAOr/DmT2Z5/pMBMGA1UdJQQMMAoGCCsGAQUFBwMCMAsGA1Ud
DwQEAwIHgDANBgkqhkiG9w0BAQsFAAOCAQEAIfeHyFZM91m/YtGzJOq0Ga2crEKQ
3b0VeqekjacuyRijt8kKFRHf0Hp96CuIWXoyvgYcMVrLN37+113/0DVyWCFrvYpw
ZWq+M9o6N2Mo/xGwhf6vET5o6LFfFyG8NlQm+TeEkQ0oxPZ8J5wItxhag6gvjjhM
LBs5IeN9+K3elIUFNg9CJfDvzkGhm/0gEMxWcH53BgowgZKkW/7GEsQJU2oX1f3H
808fHKG/rLM6NmKl7CSxuk83sdXU1iHrQkMBZ5unjATy732hnoB4NjrnV/vKbwch
8TnLJeBuQUP1Ll0FLK2AgY4Rz1+fsEkKgcck6CgrOm98aSsIfmoaMysk1A==
-----END CERTIFICATE-----
