Certificate:
    Data:
        Version: 3 (0x2)
        Serial Number:
            ee:02:f4:ab:50:31:18:a5:7e:72:4b:d5:35:2b:5a:05
        Signature Algorithm: sha256WithRSAEncryption
        Issuer: CN=Lazarus CA
        Validity
            Not Before: Jun 24 17:43:26 2019 GMT
            Not After : Jun  8 17:43:26 2022 GMT
        Subject: CN=gkumar900
        Subject Public Key Info:
            Public Key Algorithm: rsaEncryption
                RSA Public-Key: (2048 bit)
                Modulus:
                    00:ce:0b:b0:28:6e:14:3e:1d:75:5c:c7:c0:d6:e4:
                    f4:22:7c:8f:e3:af:58:9f:b9:1b:40:1f:49:0a:d5:
                    53:81:c1:19:b2:67:45:52:bc:7b:57:71:c8:9a:3f:
                    27:89:ae:61:e4:eb:fe:97:04:2a:40:0d:8f:e0:85:
                    c7:2b:27:1a:d0:68:8c:62:81:ed:1b:b6:c5:5d:e3:
                    a3:d8:03:92:8f:50:b9:4b:a4:c2:4d:e6:f3:c2:c2:
                    c6:43:86:b0:2e:d7:7c:72:cd:ef:9e:1e:39:99:a0:
                    4a:65:7c:80:57:d1:3c:46:59:96:4a:e6:10:2d:d8:
                    66:d9:55:93:56:4c:d4:41:f3:2c:25:36:5a:3e:1f:
                    53:e1:2c:8f:bd:b0:c7:45:6b:83:41:de:d6:81:0b:
                    dc:57:27:07:fb:e2:57:8b:48:70:91:c3:f6:79:6e:
                    a4:66:70:00:9c:7e:ed:fe:06:8f:9d:e3:9f:73:7e:
                    38:4e:60:ac:97:f4:21:f1:af:82:86:1b:b3:8e:70:
                    15:81:80:e1:84:06:6a:e6:e8:89:1b:98:83:ff:37:
                    d3:15:7c:9f:3d:73:d3:4c:49:13:14:b0:70:21:3e:
                    74:cb:a2:45:69:53:7b:cf:9c:6d:85:cd:d0:95:a4:
                    0c:89:bf:55:8c:b0:4e:17:b7:bd:8b:1e:44:08:00:
                    ce:ed
                Exponent: 65537 (0x10001)
        X509v3 extensions:
            X509v3 Basic Constraints: 
                CA:FALSE
            X509v3 Subject Key Identifier: 
                C9:FE:0D:BA:2A:16:80:DD:9F:D5:8B:45:F1:CD:40:3D:37:F9:3F:78
            X509v3 Authority Key Identifier: 
                keyid:19:7F:95:3A:F6:68:62:0C:BF:9D:9E:DE:4E:05:9F:71:90:2B:AA:5A
                DirName:/CN=Lazarus CA
                serial:EA:FF:0E:64:F6:67:9F:E9

            X509v3 Extended Key Usage: 
                TLS Web Client Authentication
            X509v3 Key Usage: 
                Digital Signature
    Signature Algorithm: sha256WithRSAEncryption
         12:aa:4e:b3:9f:fc:79:06:93:fa:16:c7:d0:0f:db:d4:74:61:
         c6:56:32:53:a2:0c:6b:58:69:30:80:e2:96:65:ce:06:49:a3:
         36:12:86:bd:be:a7:ec:57:9b:12:e0:72:cd:ce:31:b9:95:7e:
         17:3d:9f:a5:37:5f:ef:d2:75:50:4d:0b:b4:62:85:e5:4b:94:
         f0:45:77:56:37:2f:1a:92:34:81:19:18:e2:8b:1d:f5:14:30:
         0c:dd:f1:d0:8f:3e:8b:cb:2c:d3:6d:f8:91:e4:21:29:71:49:
         2e:de:a4:43:bf:5a:5e:00:1e:b8:05:8e:24:0b:de:e7:19:9d:
         c9:94:d2:9d:e6:a8:a7:f8:d7:f7:61:e3:f0:df:34:58:79:5e:
         2c:1a:77:9b:c9:d2:c2:82:3c:f9:29:82:42:02:39:15:00:4b:
         b0:ac:85:5e:4b:89:8d:7e:8b:96:80:e0:85:78:a2:4a:59:2c:
         8e:86:69:de:6a:6d:57:71:40:ca:56:1e:95:45:af:7d:62:8f:
         a3:92:01:4f:e4:c4:10:4f:f2:d2:df:bf:4c:ca:c5:32:76:05:
         b7:df:ab:2a:a3:07:d3:70:6e:1f:39:de:4d:82:85:bd:08:6e:
         c1:3f:18:fc:56:5a:2f:8d:a7:9b:d6:9a:c9:94:d5:a9:9f:42:
         ba:23:fb:49
-----BEGIN CERTIFICATE-----
MIIDSzCCAjOgAwIBAgIRAO4C9KtQMRilfnJL1TUrWgUwDQYJKoZIhvcNAQELBQAw
FTETMBEGA1UEAwwKTGF6YXJ1cyBDQTAeFw0xOTA2MjQxNzQzMjZaFw0yMjA2MDgx
NzQzMjZaMBQxEjAQBgNVBAMMCWdrdW1hcjkwMDCCASIwDQYJKoZIhvcNAQEBBQAD
ggEPADCCAQoCggEBAM4LsChuFD4ddVzHwNbk9CJ8j+OvWJ+5G0AfSQrVU4HBGbJn
RVK8e1dxyJo/J4muYeTr/pcEKkANj+CFxysnGtBojGKB7Ru2xV3jo9gDko9QuUuk
wk3m88LCxkOGsC7XfHLN754eOZmgSmV8gFfRPEZZlkrmEC3YZtlVk1ZM1EHzLCU2
Wj4fU+Esj72wx0Vrg0He1oEL3FcnB/viV4tIcJHD9nlupGZwAJx+7f4Gj53jn3N+
OE5grJf0IfGvgoYbs45wFYGA4YQGauboiRuYg/830xV8nz1z00xJExSwcCE+dMui
RWlTe8+cbYXN0JWkDIm/VYywThe3vYseRAgAzu0CAwEAAaOBljCBkzAJBgNVHRME
AjAAMB0GA1UdDgQWBBTJ/g26KhaA3Z/Vi0XxzUA9N/k/eDBFBgNVHSMEPjA8gBQZ
f5U69mhiDL+dnt5OBZ9xkCuqWqEZpBcwFTETMBEGA1UEAwwKTGF6YXJ1cyBDQYIJ
AOr/DmT2Z5/pMBMGA1UdJQQMMAoGCCsGAQUFBwMCMAsGA1UdDwQEAwIHgDANBgkq
hkiG9w0BAQsFAAOCAQEAEqpOs5/8eQaT+hbH0A/b1HRhxlYyU6IMa1hpMIDilmXO
BkmjNhKGvb6n7FebEuByzc4xuZV+Fz2fpTdf79J1UE0LtGKF5UuU8EV3VjcvGpI0
gRkY4osd9RQwDN3x0I8+i8ss0234keQhKXFJLt6kQ79aXgAeuAWOJAve5xmdyZTS
neaop/jX92Hj8N80WHleLBp3m8nSwoI8+SmCQgI5FQBLsKyFXkuJjX6LloDghXii
SlksjoZp3mptV3FAylYelUWvfWKPo5IBT+TEEE/y0t+/TMrFMnYFt9+rKqMH03Bu
HzneTYKFvQhuwT8Y/FZaL42nm9aayZTVqZ9CuiP7SQ==
-----END CERTIFICATE-----
