Certificate:
    Data:
        Version: 3 (0x2)
        Serial Number:
            f0:43:70:78:5e:36:90:fc:47:ed:73:08:0e:21:39:4a
    Signature Algorithm: sha256WithRSAEncryption
        Issuer: CN=Lazarus CA
        Validity
            Not Before: Apr  6 14:04:55 2019 GMT
            Not After : Mar 21 14:04:55 2022 GMT
        Subject: CN=test15
        Subject Public Key Info:
            Public Key Algorithm: rsaEncryption
                Public-Key: (2048 bit)
                Modulus:
                    00:ef:76:57:82:17:13:ff:b9:54:92:f1:90:f5:29:
                    a4:8c:1d:b4:c6:65:e9:34:1e:f2:64:cd:9e:87:8f:
                    51:e0:f5:57:d0:b5:f1:0c:98:9e:62:05:8d:d5:1a:
                    78:fa:8d:4c:07:ad:89:76:1a:18:8d:8c:e4:e1:b0:
                    8c:13:91:9f:df:92:48:7b:30:b0:0b:d0:3f:0f:f1:
                    8d:dc:1b:60:04:7a:ba:ca:d2:b6:19:c8:01:7f:65:
                    c2:b5:57:c9:2b:50:d4:bd:7b:18:c7:44:5d:5d:fc:
                    02:07:f8:11:d3:42:4a:a4:12:55:2c:2a:ed:9a:8a:
                    43:e9:6b:60:97:39:38:aa:6f:b3:32:ca:77:42:0f:
                    25:99:4f:bb:a3:9c:38:5c:54:37:74:6f:49:52:44:
                    4f:d2:03:81:20:a7:20:7a:df:50:d8:ad:da:a7:16:
                    8a:ce:00:5e:78:60:f2:5b:ab:a2:b3:98:00:19:b6:
                    24:49:3c:f4:cf:44:79:3b:fc:23:0d:f6:64:b4:4f:
                    f0:05:0a:be:ca:a4:b6:d1:b3:2c:46:78:30:53:be:
                    26:d4:cd:fd:3d:ab:3f:3d:8c:04:b7:56:c7:83:76:
                    fd:3b:06:c2:5f:bd:e5:f9:3e:b4:27:6e:8f:41:9e:
                    2b:c5:1c:5a:72:a7:b5:a4:c2:bd:8f:a5:37:dc:ce:
                    d6:8d
                Exponent: 65537 (0x10001)
        X509v3 extensions:
            X509v3 Basic Constraints: 
                CA:FALSE
            X509v3 Subject Key Identifier: 
                8E:47:E7:E5:F8:B5:9D:50:82:4A:9C:21:0F:93:81:D8:FF:5C:41:12
            X509v3 Authority Key Identifier: 
                keyid:19:7F:95:3A:F6:68:62:0C:BF:9D:9E:DE:4E:05:9F:71:90:2B:AA:5A
                DirName:/CN=Lazarus CA
                serial:EA:FF:0E:64:F6:67:9F:E9

            X509v3 Extended Key Usage: 
                TLS Web Client Authentication
            X509v3 Key Usage: 
                Digital Signature
    Signature Algorithm: sha256WithRSAEncryption
         a0:4d:89:05:1d:17:bb:f1:24:8b:70:66:d9:09:dc:08:31:29:
         ee:8f:d7:f1:4d:f4:88:9f:6d:1a:4c:4d:b0:76:90:05:b2:dc:
         1e:0d:bd:60:04:2f:90:5c:64:45:34:35:4c:75:1a:f9:ec:23:
         d9:21:e7:bb:0c:6f:a3:98:be:b6:7e:92:67:94:99:0e:48:a3:
         eb:bd:a4:97:af:29:bd:92:e5:27:cd:61:0b:18:a5:7d:06:de:
         a5:8a:9b:4b:2a:b5:5d:90:12:63:e1:ee:28:1b:7e:df:8a:e2:
         a1:5f:6a:da:80:ca:e9:ae:b1:18:bf:ac:1f:04:f4:f5:e2:db:
         c8:d1:0e:b2:97:9e:be:a6:d3:8d:36:95:b9:a0:9a:d3:63:aa:
         49:ab:58:d0:ca:23:41:9c:df:c4:c4:09:c7:f2:a9:a0:8c:fa:
         fd:61:c8:98:d9:72:31:d5:1b:2e:72:22:7a:ab:07:39:8a:39:
         ae:dc:de:f6:be:2c:1c:b8:e4:5d:e4:b6:47:dc:76:cb:1e:03:
         6e:b4:c1:18:45:cc:16:0f:b4:fa:08:75:a5:02:7e:42:ae:97:
         44:aa:b8:e2:b2:9e:fa:34:98:10:60:1a:3a:2b:d4:46:b4:d4:
         f0:d0:45:f6:24:90:2c:b0:b5:de:9d:a2:e4:aa:1d:99:9b:f1:
         58:2b:2f:bf
-----BEGIN CERTIFICATE-----
MIIDSDCCAjCgAwIBAgIRAPBDcHheNpD8R+1zCA4hOUowDQYJKoZIhvcNAQELBQAw
FTETMBEGA1UEAwwKTGF6YXJ1cyBDQTAeFw0xOTA0MDYxNDA0NTVaFw0yMjAzMjEx
NDA0NTVaMBExDzANBgNVBAMMBnRlc3QxNTCCASIwDQYJKoZIhvcNAQEBBQADggEP
ADCCAQoCggEBAO92V4IXE/+5VJLxkPUppIwdtMZl6TQe8mTNnoePUeD1V9C18QyY
nmIFjdUaePqNTAetiXYaGI2M5OGwjBORn9+SSHswsAvQPw/xjdwbYAR6usrSthnI
AX9lwrVXyStQ1L17GMdEXV38Agf4EdNCSqQSVSwq7ZqKQ+lrYJc5OKpvszLKd0IP
JZlPu6OcOFxUN3RvSVJET9IDgSCnIHrfUNit2qcWis4AXnhg8lurorOYABm2JEk8
9M9EeTv8Iw32ZLRP8AUKvsqkttGzLEZ4MFO+JtTN/T2rPz2MBLdWx4N2/TsGwl+9
5fk+tCduj0GeK8UcWnKntaTCvY+lN9zO1o0CAwEAAaOBljCBkzAJBgNVHRMEAjAA
MB0GA1UdDgQWBBSOR+fl+LWdUIJKnCEPk4HY/1xBEjBFBgNVHSMEPjA8gBQZf5U6
9mhiDL+dnt5OBZ9xkCuqWqEZpBcwFTETMBEGA1UEAwwKTGF6YXJ1cyBDQYIJAOr/
DmT2Z5/pMBMGA1UdJQQMMAoGCCsGAQUFBwMCMAsGA1UdDwQEAwIHgDANBgkqhkiG
9w0BAQsFAAOCAQEAoE2JBR0Xu/Eki3Bm2QncCDEp7o/X8U30iJ9tGkxNsHaQBbLc
Hg29YAQvkFxkRTQ1THUa+ewj2SHnuwxvo5i+tn6SZ5SZDkij672kl68pvZLlJ81h
CxilfQbepYqbSyq1XZASY+HuKBt+34rioV9q2oDK6a6xGL+sHwT09eLbyNEOspee
vqbTjTaVuaCa02OqSatY0MojQZzfxMQJx/KpoIz6/WHImNlyMdUbLnIieqsHOYo5
rtze9r4sHLjkXeS2R9x2yx4DbrTBGEXMFg+0+gh1pQJ+Qq6XRKq44rKe+jSYEGAa
OivURrTU8NBF9iSQLLC13p2i5KodmZvxWCsvvw==
-----END CERTIFICATE-----
