Certificate:
    Data:
        Version: 3 (0x2)
        Serial Number:
            f5:f5:99:3b:e4:35:b1:e6:a8:bb:50:ba:0d:79:2f:50
    Signature Algorithm: sha256WithRSAEncryption
        Issuer: CN=Lazarus CA
        Validity
            Not Before: Apr  6 14:46:53 2019 GMT
            Not After : Mar 21 14:46:53 2022 GMT
        Subject: CN=test30
        Subject Public Key Info:
            Public Key Algorithm: rsaEncryption
                Public-Key: (2048 bit)
                Modulus:
                    00:cb:74:61:78:b4:46:0a:df:76:57:14:17:6d:3e:
                    95:a5:e1:9f:6f:fe:de:ee:d7:11:69:1c:f3:d2:a7:
                    59:67:95:66:aa:1a:78:44:a6:95:5d:0c:2a:2e:19:
                    59:5d:fe:9a:9c:1a:c0:bd:42:d5:c3:ee:13:9c:e0:
                    38:e5:4e:f5:37:77:b0:53:62:a0:b4:b0:35:50:d5:
                    b0:29:e7:c7:38:b1:8e:40:8e:ec:3f:1a:05:eb:31:
                    4e:f4:12:95:4e:27:af:09:99:70:7b:c5:ce:21:35:
                    bb:59:2f:1b:13:8b:98:5c:73:c9:ee:61:1c:c9:61:
                    29:d5:86:b5:6f:9e:4e:44:19:1b:5c:12:0e:de:c9:
                    08:f3:64:9b:f8:eb:cb:6c:a6:34:49:7c:5f:1c:55:
                    a8:aa:8d:1f:70:97:52:51:3f:af:fd:a5:49:34:f9:
                    24:e6:72:dc:b7:0e:90:40:97:42:a6:17:14:63:98:
                    7c:07:1a:13:57:5d:a3:fe:ac:cd:17:df:d1:31:8d:
                    d9:d8:d6:75:dc:2f:ec:eb:35:e1:d8:e5:ca:b8:e0:
                    35:5a:de:bb:a2:62:84:05:00:3d:6a:ff:b4:10:78:
                    49:db:a5:d8:46:d4:f2:b8:1e:0f:74:90:88:6f:cb:
                    2a:ea:c3:fe:a8:54:5e:c8:aa:a5:1c:9d:57:3f:6c:
                    89:6f
                Exponent: 65537 (0x10001)
        X509v3 extensions:
            X509v3 Basic Constraints: 
                CA:FALSE
            X509v3 Subject Key Identifier: 
                BE:BD:60:C3:B9:D2:37:8C:90:03:FB:F6:0D:D2:41:28:42:22:B0:8C
            X509v3 Authority Key Identifier: 
                keyid:19:7F:95:3A:F6:68:62:0C:BF:9D:9E:DE:4E:05:9F:71:90:2B:AA:5A
                DirName:/CN=Lazarus CA
                serial:EA:FF:0E:64:F6:67:9F:E9

            X509v3 Extended Key Usage: 
                TLS Web Client Authentication
            X509v3 Key Usage: 
                Digital Signature
    Signature Algorithm: sha256WithRSAEncryption
         10:a1:48:5f:3c:4e:ce:fe:af:67:59:fc:a7:52:02:36:a8:82:
         eb:4b:bf:a6:f9:8b:fb:89:2c:e4:82:eb:a8:ef:f0:4f:38:b5:
         e2:50:9e:0c:6f:36:21:7e:e2:f5:d4:6c:53:da:99:8d:6b:6c:
         56:4c:ce:2f:6b:ee:75:2a:20:fe:51:46:33:26:6b:ca:be:6e:
         98:67:27:40:70:04:22:7e:a2:8d:5e:c0:f9:78:d5:2e:fd:32:
         6d:fc:86:87:71:a1:8e:4d:3c:ad:5b:4b:80:ab:d1:94:32:4d:
         27:47:99:d8:27:82:d0:ce:63:c2:d4:ae:f8:89:d1:64:50:ef:
         6c:82:87:e3:f5:08:ea:96:b8:f0:84:06:be:ae:35:0d:73:df:
         b1:88:5b:4a:08:91:8e:8d:a8:82:7a:ef:25:95:9f:07:b5:24:
         80:67:62:dd:90:40:81:d6:68:aa:23:29:b9:eb:8c:e8:c1:1d:
         de:5c:e6:d1:8f:3f:c5:b1:10:df:10:76:09:43:d3:8f:87:74:
         22:77:e9:6c:70:f2:85:9b:7a:ed:2b:89:36:18:9c:4c:01:89:
         57:f2:07:97:f7:2a:20:8c:19:85:b5:82:31:55:7a:4d:b1:5a:
         08:ec:ae:74:67:9f:71:a8:f5:e3:6f:9d:88:ae:55:06:de:3f:
         fe:c8:14:fb
-----BEGIN CERTIFICATE-----
MIIDSDCCAjCgAwIBAgIRAPX1mTvkNbHmqLtQug15L1AwDQYJKoZIhvcNAQELBQAw
FTETMBEGA1UEAwwKTGF6YXJ1cyBDQTAeFw0xOTA0MDYxNDQ2NTNaFw0yMjAzMjEx
NDQ2NTNaMBExDzANBgNVBAMMBnRlc3QzMDCCASIwDQYJKoZIhvcNAQEBBQADggEP
ADCCAQoCggEBAMt0YXi0RgrfdlcUF20+laXhn2/+3u7XEWkc89KnWWeVZqoaeESm
lV0MKi4ZWV3+mpwawL1C1cPuE5zgOOVO9Td3sFNioLSwNVDVsCnnxzixjkCO7D8a
BesxTvQSlU4nrwmZcHvFziE1u1kvGxOLmFxzye5hHMlhKdWGtW+eTkQZG1wSDt7J
CPNkm/jry2ymNEl8XxxVqKqNH3CXUlE/r/2lSTT5JOZy3LcOkECXQqYXFGOYfAca
E1ddo/6szRff0TGN2djWddwv7Os14djlyrjgNVreu6JihAUAPWr/tBB4Sdul2EbU
8rgeD3SQiG/LKurD/qhUXsiqpRydVz9siW8CAwEAAaOBljCBkzAJBgNVHRMEAjAA
MB0GA1UdDgQWBBS+vWDDudI3jJAD+/YN0kEoQiKwjDBFBgNVHSMEPjA8gBQZf5U6
9mhiDL+dnt5OBZ9xkCuqWqEZpBcwFTETMBEGA1UEAwwKTGF6YXJ1cyBDQYIJAOr/
DmT2Z5/pMBMGA1UdJQQMMAoGCCsGAQUFBwMCMAsGA1UdDwQEAwIHgDANBgkqhkiG
9w0BAQsFAAOCAQEAEKFIXzxOzv6vZ1n8p1ICNqiC60u/pvmL+4ks5ILrqO/wTzi1
4lCeDG82IX7i9dRsU9qZjWtsVkzOL2vudSog/lFGMyZryr5umGcnQHAEIn6ijV7A
+XjVLv0ybfyGh3Ghjk08rVtLgKvRlDJNJ0eZ2CeC0M5jwtSu+InRZFDvbIKH4/UI
6pa48IQGvq41DXPfsYhbSgiRjo2ognrvJZWfB7UkgGdi3ZBAgdZoqiMpueuM6MEd
3lzm0Y8/xbEQ3xB2CUPTj4d0InfpbHDyhZt67SuJNhicTAGJV/IHl/cqIIwZhbWC
MVV6TbFaCOyudGefcaj142+diK5VBt4//sgU+w==
-----END CERTIFICATE-----
