Certificate:
    Data:
        Version: 3 (0x2)
        Serial Number:
            f9:5e:d6:12:1d:a9:e3:08:68:c7:db:bb:4d:e2:82:ff
    Signature Algorithm: sha256WithRSAEncryption
        Issuer: CN=Lazarus CA
        Validity
            Not Before: Apr  6 15:14:29 2019 GMT
            Not After : Mar 21 15:14:29 2022 GMT
        Subject: CN=test35
        Subject Public Key Info:
            Public Key Algorithm: rsaEncryption
                Public-Key: (2048 bit)
                Modulus:
                    00:dd:47:1e:e5:c0:dc:b6:44:a8:a9:04:05:a5:49:
                    4c:e1:25:2e:1c:81:51:a4:40:2c:77:6b:92:76:25:
                    3f:00:84:37:53:fd:e8:fb:10:ec:f2:cc:0d:50:19:
                    e5:e6:7e:89:c3:0f:e2:f7:0c:e1:86:01:eb:96:53:
                    1b:fc:d1:dc:53:e6:ff:11:e3:bd:b3:e9:17:05:66:
                    fe:b8:01:54:37:87:42:fb:44:32:d6:0f:25:c3:e9:
                    67:d8:b7:31:4b:e6:f0:f6:ae:7d:43:11:5e:71:e8:
                    da:c6:f8:8f:82:f4:2b:5c:05:a8:6e:30:d2:0e:31:
                    ec:09:72:be:fe:09:ea:f5:63:79:c6:63:56:d1:f3:
                    67:46:55:d2:f3:35:42:c0:fd:e1:92:b2:37:11:c4:
                    dd:ad:ba:a9:26:47:c2:2c:df:97:0a:29:cf:39:78:
                    67:8b:32:cd:35:0e:d6:c4:2c:21:c3:32:45:c1:b6:
                    e4:64:1a:fd:b4:51:13:4e:b5:9f:55:0e:31:46:27:
                    dd:aa:4c:1e:9a:2a:d4:91:5c:21:64:bb:91:04:2c:
                    d6:09:34:43:0e:46:cf:e0:2e:01:b4:96:d2:62:ee:
                    c1:18:18:69:49:50:58:3e:6b:6c:13:ef:35:ef:5f:
                    1d:d4:af:e7:2c:d9:2e:59:c7:2d:b3:68:91:22:46:
                    37:a1
                Exponent: 65537 (0x10001)
        X509v3 extensions:
            X509v3 Basic Constraints: 
                CA:FALSE
            X509v3 Subject Key Identifier: 
                69:2E:0D:0F:9E:6D:58:4E:17:A1:6D:FA:FF:C9:DD:AB:35:0A:F3:59
            X509v3 Authority Key Identifier: 
                keyid:19:7F:95:3A:F6:68:62:0C:BF:9D:9E:DE:4E:05:9F:71:90:2B:AA:5A
                DirName:/CN=Lazarus CA
                serial:EA:FF:0E:64:F6:67:9F:E9

            X509v3 Extended Key Usage: 
                TLS Web Client Authentication
            X509v3 Key Usage: 
                Digital Signature
    Signature Algorithm: sha256WithRSAEncryption
         8f:ad:90:5b:65:b2:50:94:7b:25:c4:14:8b:33:f8:45:0f:cf:
         3f:60:1f:88:cb:6a:59:6e:44:b4:a5:90:a6:4e:ab:e6:f4:95:
         a9:6e:2a:e4:d4:14:c7:de:9a:dc:df:19:7e:6e:a0:0e:8f:ad:
         fa:8c:22:e9:85:a9:0b:b3:3d:81:1f:40:0c:57:a3:e0:f4:c8:
         9f:71:60:f7:94:aa:cf:26:09:8b:63:f1:3f:1d:2b:c4:28:85:
         50:b0:84:1a:7c:d1:7b:95:2b:d7:e1:fa:d7:6b:6f:a9:55:70:
         b4:64:cd:8a:66:7f:22:5d:9a:23:65:97:43:b7:df:4b:4d:a6:
         95:c3:01:5c:5d:86:38:06:fe:93:5f:27:30:d5:84:c2:8c:12:
         d8:70:c1:b3:bf:b6:74:0f:51:57:14:85:4a:37:bd:86:89:76:
         78:eb:e1:49:ae:a8:84:e3:6d:59:27:5e:23:26:1e:d4:36:9e:
         c2:17:7b:7d:96:80:62:e1:fe:51:c8:08:d2:85:ef:60:24:39:
         91:05:04:0c:cd:b0:f1:c0:ac:f9:26:e2:04:e7:7c:c6:cc:f1:
         78:3c:f2:63:dd:e8:bb:c4:ae:6a:b8:af:7e:37:74:ad:6d:50:
         0f:42:74:91:7c:67:7f:3e:d7:1f:d5:a5:6c:2c:35:bc:48:5e:
         5f:3b:44:e8
-----BEGIN CERTIFICATE-----
MIIDSDCCAjCgAwIBAgIRAPle1hIdqeMIaMfbu03igv8wDQYJKoZIhvcNAQELBQAw
FTETMBEGA1UEAwwKTGF6YXJ1cyBDQTAeFw0xOTA0MDYxNTE0MjlaFw0yMjAzMjEx
NTE0MjlaMBExDzANBgNVBAMMBnRlc3QzNTCCASIwDQYJKoZIhvcNAQEBBQADggEP
ADCCAQoCggEBAN1HHuXA3LZEqKkEBaVJTOElLhyBUaRALHdrknYlPwCEN1P96PsQ
7PLMDVAZ5eZ+icMP4vcM4YYB65ZTG/zR3FPm/xHjvbPpFwVm/rgBVDeHQvtEMtYP
JcPpZ9i3MUvm8PaufUMRXnHo2sb4j4L0K1wFqG4w0g4x7Alyvv4J6vVjecZjVtHz
Z0ZV0vM1QsD94ZKyNxHE3a26qSZHwizflwopzzl4Z4syzTUO1sQsIcMyRcG25GQa
/bRRE061n1UOMUYn3apMHpoq1JFcIWS7kQQs1gk0Qw5Gz+AuAbSW0mLuwRgYaUlQ
WD5rbBPvNe9fHdSv5yzZLlnHLbNokSJGN6ECAwEAAaOBljCBkzAJBgNVHRMEAjAA
MB0GA1UdDgQWBBRpLg0Pnm1YThehbfr/yd2rNQrzWTBFBgNVHSMEPjA8gBQZf5U6
9mhiDL+dnt5OBZ9xkCuqWqEZpBcwFTETMBEGA1UEAwwKTGF6YXJ1cyBDQYIJAOr/
DmT2Z5/pMBMGA1UdJQQMMAoGCCsGAQUFBwMCMAsGA1UdDwQEAwIHgDANBgkqhkiG
9w0BAQsFAAOCAQEAj62QW2WyUJR7JcQUizP4RQ/PP2AfiMtqWW5EtKWQpk6r5vSV
qW4q5NQUx96a3N8Zfm6gDo+t+owi6YWpC7M9gR9ADFej4PTIn3Fg95SqzyYJi2Px
Px0rxCiFULCEGnzRe5Ur1+H612tvqVVwtGTNimZ/Il2aI2WXQ7ffS02mlcMBXF2G
OAb+k18nMNWEwowS2HDBs7+2dA9RVxSFSje9hol2eOvhSa6ohONtWSdeIyYe1Dae
whd7fZaAYuH+UcgI0oXvYCQ5kQUEDM2w8cCs+SbiBOd8xszxeDzyY93ou8Suariv
fjd0rW1QD0J0kXxnfz7XH9WlbCw1vEheXztE6A==
-----END CERTIFICATE-----
